ccopy_reg
_reconstructor
p0
(ctethne.data
GraphCollection
p1
c__builtin__
object
p2
Ntp3
Rp4
(dp5
S'graphs'
p6
(dp7
I0
g0
(cnetworkx.classes.graph
Graph
p8
g2
Ntp9
Rp10
(dp11
S'node'
p12
(dp13
I0
(dp14
sI1
(dp15
sI2
(dp16
sI3
(dp17
sI4
(dp18
sI5
(dp19
sI6
(dp20
sI7
(dp21
sI8
(dp22
sI9
(dp23
sI10
(dp24
sI11
(dp25
sI12
(dp26
sI13
(dp27
sI14
(dp28
sI15
(dp29
sI16
(dp30
sI17
(dp31
sI18
(dp32
sI19
(dp33
sI20
(dp34
sI21
(dp35
sI22
(dp36
sI23
(dp37
sI24
(dp38
sI25
(dp39
sI26
(dp40
sI27
(dp41
sI28
(dp42
sI29
(dp43
sI30
(dp44
sI31
(dp45
sI32
(dp46
sI33
(dp47
sI34
(dp48
sI35
(dp49
sI36
(dp50
sI37
(dp51
sI38
(dp52
sI39
(dp53
sI40
(dp54
sI41
(dp55
sI42
(dp56
sI43
(dp57
sI44
(dp58
sI45
(dp59
sI46
(dp60
sI47
(dp61
sI48
(dp62
sI49
(dp63
sI50
(dp64
sI51
(dp65
sI52
(dp66
sI53
(dp67
sI54
(dp68
sI55
(dp69
sI56
(dp70
sI57
(dp71
sI58
(dp72
sI59
(dp73
sI60
(dp74
sI61
(dp75
sI62
(dp76
sI63
(dp77
sI64
(dp78
sI65
(dp79
sI66
(dp80
sI67
(dp81
sI68
(dp82
sI69
(dp83
sI70
(dp84
sI71
(dp85
sI72
(dp86
sI73
(dp87
sI74
(dp88
sI75
(dp89
sI76
(dp90
sI77
(dp91
sI78
(dp92
sI79
(dp93
sI80
(dp94
sI81
(dp95
sI82
(dp96
sI83
(dp97
sI84
(dp98
sI85
(dp99
sI86
(dp100
sI87
(dp101
sI88
(dp102
sI89
(dp103
sI90
(dp104
sI91
(dp105
sI92
(dp106
sI93
(dp107
sI94
(dp108
sI95
(dp109
sI96
(dp110
sI97
(dp111
sI98
(dp112
sI99
(dp113
ssS'graph'
p114
(dp115
sS'edge'
p116
(dp117
I0
(dp118
I4
(dp119
sI7
(dp120
sI11
(dp121
sI13
(dp122
sI15
(dp123
sI23
(dp124
sI25
(dp125
sI30
(dp126
sI32
(dp127
sI33
(dp128
sI38
(dp129
sI40
(dp130
sI48
(dp131
sI50
(dp132
sI51
(dp133
sI52
(dp134
sI55
(dp135
sI56
(dp136
sI63
(dp137
sI65
(dp138
sI68
(dp139
sI73
(dp140
sI74
(dp141
sI76
(dp142
sI83
(dp143
sI91
(dp144
sI94
(dp145
ssI1
(dp146
I5
(dp147
sI6
(dp148
sI12
(dp149
sI13
(dp150
sI16
(dp151
sI19
(dp152
sI23
(dp153
sI24
(dp154
sI28
(dp155
sI34
(dp156
sI35
(dp157
sI39
(dp158
sI46
(dp159
sI54
(dp160
sI56
(dp161
sI57
(dp162
sI62
(dp163
sI63
(dp164
sI66
(dp165
sI67
(dp166
sI70
(dp167
sI72
(dp168
sI76
(dp169
sI77
(dp170
sI78
(dp171
sI84
(dp172
sI85
(dp173
sI88
(dp174
sI90
(dp175
sI94
(dp176
sI97
(dp177
ssI2
(dp178
I3
(dp179
sI4
(dp180
sI38
(dp181
sI77
(dp182
sI10
(dp183
sI11
(dp184
sI76
(dp185
sI13
(dp186
sI14
(dp187
sI61
(dp188
sI49
(dp189
sI18
(dp190
sI83
(dp191
sI52
(dp192
sI82
(dp193
sI55
(dp194
sI89
(dp195
sI75
(dp196
sI42
(dp197
ssI3
(dp198
I2
g179
sI4
(dp199
sI6
(dp200
sI11
(dp201
sI12
(dp202
sI13
(dp203
sI14
(dp204
sI21
(dp205
sI22
(dp206
sI29
(dp207
sI30
(dp208
sI31
(dp209
sI38
(dp210
sI39
(dp211
sI40
(dp212
sI43
(dp213
sI44
(dp214
sI45
(dp215
sI48
(dp216
sI49
(dp217
sI52
(dp218
sI56
(dp219
sI60
(dp220
sI61
(dp221
sI63
(dp222
sI66
(dp223
sI71
(dp224
sI76
(dp225
sI77
(dp226
sI79
(dp227
sI82
(dp228
sI83
(dp229
sI87
(dp230
sI89
(dp231
sI90
(dp232
sI93
(dp233
sI96
(dp234
ssI4
(dp235
I0
g119
sI2
g180
sI3
g199
sI7
(dp236
sI14
(dp237
sI16
(dp238
sI20
(dp239
sI26
(dp240
sI32
(dp241
sI38
(dp242
sI39
(dp243
sI45
(dp244
sI52
(dp245
sI54
(dp246
sI58
(dp247
sI64
(dp248
sI65
(dp249
sI66
(dp250
sI72
(dp251
sI77
(dp252
sI80
(dp253
sI87
(dp254
sI91
(dp255
sI92
(dp256
sI93
(dp257
sI94
(dp258
ssI5
(dp259
I1
g147
sI7
(dp260
sI8
(dp261
sI9
(dp262
sI10
(dp263
sI22
(dp264
sI23
(dp265
sI24
(dp266
sI25
(dp267
sI29
(dp268
sI30
(dp269
sI33
(dp270
sI41
(dp271
sI43
(dp272
sI45
(dp273
sI47
(dp274
sI49
(dp275
sI53
(dp276
sI54
(dp277
sI56
(dp278
sI60
(dp279
sI61
(dp280
sI63
(dp281
sI64
(dp282
sI66
(dp283
sI78
(dp284
sI82
(dp285
sI86
(dp286
sI87
(dp287
sI91
(dp288
sI97
(dp289
ssI6
(dp290
I1
g148
sI3
g200
sI9
(dp291
sI15
(dp292
sI16
(dp293
sI17
(dp294
sI21
(dp295
sI23
(dp296
sI24
(dp297
sI25
(dp298
sI26
(dp299
sI30
(dp300
sI31
(dp301
sI33
(dp302
sI40
(dp303
sI43
(dp304
sI47
(dp305
sI50
(dp306
sI51
(dp307
sI60
(dp308
sI64
(dp309
sI65
(dp310
sI66
(dp311
sI67
(dp312
sI68
(dp313
sI69
(dp314
sI71
(dp315
sI72
(dp316
sI75
(dp317
sI80
(dp318
sI82
(dp319
sI83
(dp320
sI89
(dp321
ssI7
(dp322
I0
g120
sI4
g236
sI5
g260
sI9
(dp323
sI14
(dp324
sI19
(dp325
sI20
(dp326
sI21
(dp327
sI22
(dp328
sI24
(dp329
sI28
(dp330
sI29
(dp331
sI35
(dp332
sI36
(dp333
sI40
(dp334
sI42
(dp335
sI43
(dp336
sI44
(dp337
sI46
(dp338
sI47
(dp339
sI53
(dp340
sI55
(dp341
sI57
(dp342
sI60
(dp343
sI67
(dp344
sI77
(dp345
sI80
(dp346
sI83
(dp347
sI84
(dp348
sI90
(dp349
sI99
(dp350
ssI8
(dp351
I5
g261
sI10
(dp352
sI13
(dp353
sI15
(dp354
sI17
(dp355
sI23
(dp356
sI32
(dp357
sI33
(dp358
sI37
(dp359
sI39
(dp360
sI44
(dp361
sI50
(dp362
sI52
(dp363
sI58
(dp364
sI59
(dp365
sI60
(dp366
sI61
(dp367
sI68
(dp368
sI69
(dp369
sI73
(dp370
sI74
(dp371
sI75
(dp372
sI76
(dp373
sI77
(dp374
sI78
(dp375
sI80
(dp376
sI82
(dp377
sI83
(dp378
sI85
(dp379
sI86
(dp380
sI89
(dp381
sI90
(dp382
sI91
(dp383
sI94
(dp384
sI97
(dp385
ssI9
(dp386
I5
g262
sI6
g291
sI7
g323
sI18
(dp387
sI20
(dp388
sI21
(dp389
sI22
(dp390
sI23
(dp391
sI25
(dp392
sI27
(dp393
sI29
(dp394
sI35
(dp395
sI38
(dp396
sI43
(dp397
sI44
(dp398
sI46
(dp399
sI49
(dp400
sI50
(dp401
sI56
(dp402
sI61
(dp403
sI74
(dp404
sI75
(dp405
sI79
(dp406
sI81
(dp407
sI82
(dp408
sI85
(dp409
sI86
(dp410
sI87
(dp411
sI90
(dp412
sI92
(dp413
sI94
(dp414
sI96
(dp415
sI98
(dp416
sI99
(dp417
ssI10
(dp418
I2
g183
sI5
g263
sI8
g352
sI14
(dp419
sI17
(dp420
sI19
(dp421
sI20
(dp422
sI21
(dp423
sI24
(dp424
sI29
(dp425
sI30
(dp426
sI38
(dp427
sI40
(dp428
sI41
(dp429
sI46
(dp430
sI49
(dp431
sI53
(dp432
sI56
(dp433
sI58
(dp434
sI59
(dp435
sI64
(dp436
sI69
(dp437
sI73
(dp438
sI74
(dp439
sI76
(dp440
sI85
(dp441
sI87
(dp442
sI88
(dp443
sI89
(dp444
sI94
(dp445
sI98
(dp446
ssI11
(dp447
I0
g121
sI2
g184
sI3
g201
sI12
(dp448
sI13
(dp449
sI14
(dp450
sI17
(dp451
sI19
(dp452
sI20
(dp453
sI25
(dp454
sI34
(dp455
sI35
(dp456
sI37
(dp457
sI38
(dp458
sI44
(dp459
sI45
(dp460
sI47
(dp461
sI48
(dp462
sI53
(dp463
sI54
(dp464
sI56
(dp465
sI60
(dp466
sI63
(dp467
sI69
(dp468
sI70
(dp469
sI71
(dp470
sI74
(dp471
sI75
(dp472
sI76
(dp473
sI77
(dp474
sI78
(dp475
sI81
(dp476
sI84
(dp477
sI87
(dp478
sI88
(dp479
sI93
(dp480
sI95
(dp481
sI99
(dp482
ssI12
(dp483
I1
g149
sI3
g202
sI11
g448
sI13
(dp484
sI15
(dp485
sI16
(dp486
sI24
(dp487
sI26
(dp488
sI27
(dp489
sI30
(dp490
sI41
(dp491
sI44
(dp492
sI48
(dp493
sI52
(dp494
sI57
(dp495
sI67
(dp496
sI70
(dp497
sI71
(dp498
sI73
(dp499
sI75
(dp500
sI76
(dp501
sI77
(dp502
sI79
(dp503
sI81
(dp504
sI83
(dp505
sI85
(dp506
sI90
(dp507
sI91
(dp508
sI94
(dp509
sI95
(dp510
sI96
(dp511
ssI13
(dp512
I0
g122
sI1
g150
sI2
g186
sI3
g203
sI8
g353
sI11
g449
sI12
g484
sI14
(dp513
sI16
(dp514
sI18
(dp515
sI26
(dp516
sI35
(dp517
sI42
(dp518
sI48
(dp519
sI51
(dp520
sI58
(dp521
sI64
(dp522
sI67
(dp523
sI69
(dp524
sI71
(dp525
sI75
(dp526
sI79
(dp527
sI85
(dp528
sI93
(dp529
sI98
(dp530
ssI14
(dp531
I2
g187
sI3
g204
sI4
g237
sI7
g324
sI10
g419
sI11
g450
sI13
g513
sI15
(dp532
sI22
(dp533
sI27
(dp534
sI28
(dp535
sI30
(dp536
sI32
(dp537
sI33
(dp538
sI34
(dp539
sI41
(dp540
sI42
(dp541
sI47
(dp542
sI48
(dp543
sI52
(dp544
sI53
(dp545
sI58
(dp546
sI63
(dp547
sI78
(dp548
sI79
(dp549
sI88
(dp550
sI95
(dp551
sI96
(dp552
sI97
(dp553
ssI15
(dp554
I0
g123
sI6
g292
sI8
g354
sI12
g485
sI14
g532
sI21
(dp555
sI22
(dp556
sI29
(dp557
sI37
(dp558
sI38
(dp559
sI42
(dp560
sI43
(dp561
sI46
(dp562
sI55
(dp563
sI59
(dp564
sI60
(dp565
sI61
(dp566
sI63
(dp567
sI64
(dp568
sI67
(dp569
sI71
(dp570
sI72
(dp571
sI74
(dp572
sI77
(dp573
sI85
(dp574
sI86
(dp575
sI87
(dp576
sI90
(dp577
sI94
(dp578
sI95
(dp579
sI97
(dp580
ssI16
(dp581
I1
g151
sI4
g238
sI6
g293
sI12
g486
sI13
g514
sI23
(dp582
sI25
(dp583
sI28
(dp584
sI32
(dp585
sI33
(dp586
sI40
(dp587
sI46
(dp588
sI48
(dp589
sI50
(dp590
sI51
(dp591
sI53
(dp592
sI54
(dp593
sI61
(dp594
sI70
(dp595
sI72
(dp596
sI73
(dp597
sI79
(dp598
sI80
(dp599
sI84
(dp600
sI85
(dp601
sI87
(dp602
sI91
(dp603
sI92
(dp604
sI94
(dp605
sI96
(dp606
sI97
(dp607
ssI17
(dp608
I6
g294
sI8
g355
sI10
g420
sI11
g451
sI20
(dp609
sI22
(dp610
sI24
(dp611
sI27
(dp612
sI30
(dp613
sI31
(dp614
sI32
(dp615
sI33
(dp616
sI36
(dp617
sI41
(dp618
sI52
(dp619
sI54
(dp620
sI55
(dp621
sI61
(dp622
sI65
(dp623
sI69
(dp624
sI71
(dp625
sI75
(dp626
sI76
(dp627
sI80
(dp628
sI81
(dp629
sI90
(dp630
sI97
(dp631
ssI18
(dp632
I2
g190
sI9
g387
sI13
g515
sI19
(dp633
sI20
(dp634
sI23
(dp635
sI26
(dp636
sI50
(dp637
sI57
(dp638
sI60
(dp639
sI62
(dp640
sI64
(dp641
sI65
(dp642
sI66
(dp643
sI67
(dp644
sI68
(dp645
sI77
(dp646
sI78
(dp647
sI87
(dp648
sI91
(dp649
sI95
(dp650
sI96
(dp651
ssI19
(dp652
I1
g152
sI7
g325
sI10
g421
sI11
g452
sI18
g633
sI21
(dp653
sI22
(dp654
sI23
(dp655
sI24
(dp656
sI29
(dp657
sI39
(dp658
sI40
(dp659
sI41
(dp660
sI45
(dp661
sI49
(dp662
sI51
(dp663
sI61
(dp664
sI63
(dp665
sI65
(dp666
sI66
(dp667
sI71
(dp668
sI74
(dp669
sI79
(dp670
sI83
(dp671
sI88
(dp672
ssI20
(dp673
I4
g239
sI7
g326
sI9
g388
sI10
g422
sI11
g453
sI17
g609
sI18
g634
sI22
(dp674
sI23
(dp675
sI24
(dp676
sI25
(dp677
sI42
(dp678
sI46
(dp679
sI48
(dp680
sI58
(dp681
sI63
(dp682
sI65
(dp683
sI66
(dp684
sI67
(dp685
sI72
(dp686
sI77
(dp687
sI78
(dp688
sI85
(dp689
sI86
(dp690
sI89
(dp691
sI91
(dp692
sI93
(dp693
sI94
(dp694
sI97
(dp695
sI99
(dp696
ssI21
(dp697
I3
g205
sI6
g295
sI7
g327
sI9
g389
sI10
g423
sI15
g555
sI19
g653
sI26
(dp698
sI29
(dp699
sI30
(dp700
sI38
(dp701
sI41
(dp702
sI43
(dp703
sI47
(dp704
sI48
(dp705
sI49
(dp706
sI52
(dp707
sI55
(dp708
sI56
(dp709
sI57
(dp710
sI58
(dp711
sI61
(dp712
sI68
(dp713
sI70
(dp714
sI72
(dp715
sI80
(dp716
sI87
(dp717
sI90
(dp718
sI91
(dp719
sI92
(dp720
sI95
(dp721
sI96
(dp722
sI98
(dp723
ssI22
(dp724
I3
g206
sI5
g264
sI7
g328
sI9
g390
sI14
g533
sI15
g556
sI17
g610
sI19
g654
sI20
g674
sI23
(dp725
sI28
(dp726
sI30
(dp727
sI32
(dp728
sI38
(dp729
sI40
(dp730
sI41
(dp731
sI47
(dp732
sI50
(dp733
sI54
(dp734
sI56
(dp735
sI57
(dp736
sI68
(dp737
sI80
(dp738
sI86
(dp739
sI88
(dp740
sI90
(dp741
sI91
(dp742
sI92
(dp743
sI95
(dp744
sI96
(dp745
sI97
(dp746
ssI23
(dp747
I0
g124
sI1
g153
sI5
g265
sI6
g296
sI8
g356
sI9
g391
sI16
g582
sI18
g635
sI19
g655
sI20
g675
sI22
g725
sI24
(dp748
sI25
(dp749
sI26
(dp750
sI29
(dp751
sI30
(dp752
sI31
(dp753
sI33
(dp754
sI43
(dp755
sI45
(dp756
sI46
(dp757
sI54
(dp758
sI61
(dp759
sI62
(dp760
sI63
(dp761
sI68
(dp762
sI69
(dp763
sI78
(dp764
sI79
(dp765
sI85
(dp766
sI86
(dp767
sI89
(dp768
sI93
(dp769
sI94
(dp770
sI95
(dp771
sI96
(dp772
sI99
(dp773
ssI24
(dp774
I1
g154
sI5
g266
sI6
g297
sI7
g329
sI10
g424
sI12
g487
sI17
g611
sI19
g656
sI20
g676
sI23
g748
sI26
(dp775
sI29
(dp776
sI33
(dp777
sI34
(dp778
sI35
(dp779
sI38
(dp780
sI41
(dp781
sI44
(dp782
sI52
(dp783
sI58
(dp784
sI60
(dp785
sI61
(dp786
sI62
(dp787
sI63
(dp788
sI69
(dp789
sI72
(dp790
sI74
(dp791
sI78
(dp792
sI80
(dp793
sI82
(dp794
sI83
(dp795
sI85
(dp796
sI89
(dp797
sI93
(dp798
sI97
(dp799
sI99
(dp800
ssI25
(dp801
I0
g125
sI5
g267
sI6
g298
sI9
g392
sI11
g454
sI16
g583
sI20
g677
sI23
g749
sI29
(dp802
sI32
(dp803
sI33
(dp804
sI34
(dp805
sI35
(dp806
sI37
(dp807
sI48
(dp808
sI53
(dp809
sI62
(dp810
sI64
(dp811
sI67
(dp812
sI69
(dp813
sI70
(dp814
sI74
(dp815
sI75
(dp816
sI76
(dp817
sI78
(dp818
sI79
(dp819
sI83
(dp820
sI88
(dp821
sI90
(dp822
sI95
(dp823
ssI26
(dp824
I4
g240
sI6
g299
sI12
g488
sI13
g516
sI18
g636
sI21
g698
sI23
g750
sI24
g775
sI27
(dp825
sI31
(dp826
sI32
(dp827
sI35
(dp828
sI36
(dp829
sI37
(dp830
sI38
(dp831
sI39
(dp832
sI40
(dp833
sI42
(dp834
sI46
(dp835
sI48
(dp836
sI49
(dp837
sI56
(dp838
sI57
(dp839
sI60
(dp840
sI76
(dp841
sI77
(dp842
sI81
(dp843
sI84
(dp844
sI92
(dp845
sI95
(dp846
sI97
(dp847
sI98
(dp848
ssI27
(dp849
I32
(dp850
sI97
(dp851
sI37
(dp852
sI70
(dp853
sI9
g393
sI55
(dp854
sI12
g489
sI14
g534
sI60
(dp855
sI17
g612
sI53
(dp856
sI73
(dp857
sI41
(dp858
sI88
(dp859
sI89
(dp860
sI26
g825
sI91
(dp861
sI28
(dp862
sI78
(dp863
sI94
(dp864
sI85
(dp865
ssI28
(dp866
I1
g155
sI7
g330
sI14
g535
sI16
g584
sI22
g726
sI27
g862
sI42
(dp867
sI45
(dp868
sI49
(dp869
sI56
(dp870
sI60
(dp871
sI63
(dp872
sI65
(dp873
sI66
(dp874
sI70
(dp875
sI73
(dp876
sI74
(dp877
sI77
(dp878
sI80
(dp879
sI84
(dp880
sI86
(dp881
sI91
(dp882
sI95
(dp883
ssI29
(dp884
I3
g207
sI5
g268
sI7
g331
sI9
g394
sI10
g425
sI15
g557
sI19
g657
sI21
g699
sI23
g751
sI24
g776
sI25
g802
sI39
(dp885
sI40
(dp886
sI43
(dp887
sI44
(dp888
sI49
(dp889
sI50
(dp890
sI54
(dp891
sI59
(dp892
sI63
(dp893
sI65
(dp894
sI67
(dp895
sI79
(dp896
sI82
(dp897
sI85
(dp898
sI89
(dp899
sI91
(dp900
sI92
(dp901
ssI30
(dp902
I0
g126
sI3
g208
sI5
g269
sI6
g300
sI10
g426
sI12
g490
sI14
g536
sI17
g613
sI21
g700
sI22
g727
sI23
g752
sI31
(dp903
sI32
(dp904
sI34
(dp905
sI42
(dp906
sI43
(dp907
sI53
(dp908
sI58
(dp909
sI60
(dp910
sI64
(dp911
sI66
(dp912
sI69
(dp913
sI70
(dp914
sI74
(dp915
sI76
(dp916
sI78
(dp917
sI80
(dp918
sI83
(dp919
sI91
(dp920
sI92
(dp921
sI93
(dp922
sI94
(dp923
sI95
(dp924
sI97
(dp925
ssI31
(dp926
I3
g209
sI6
g301
sI17
g614
sI23
g753
sI26
g826
sI30
g903
sI36
(dp927
sI38
(dp928
sI39
(dp929
sI42
(dp930
sI43
(dp931
sI44
(dp932
sI45
(dp933
sI49
(dp934
sI51
(dp935
sI54
(dp936
sI61
(dp937
sI63
(dp938
sI67
(dp939
sI68
(dp940
sI71
(dp941
sI77
(dp942
sI80
(dp943
sI81
(dp944
sI83
(dp945
sI90
(dp946
sI93
(dp947
sI95
(dp948
ssI32
(dp949
I0
g127
sI4
g241
sI8
g357
sI14
g537
sI16
g585
sI17
g615
sI22
g728
sI25
g803
sI26
g827
sI27
g850
sI30
g904
sI40
(dp950
sI44
(dp951
sI47
(dp952
sI48
(dp953
sI49
(dp954
sI53
(dp955
sI56
(dp956
sI58
(dp957
sI63
(dp958
sI64
(dp959
sI65
(dp960
sI66
(dp961
sI68
(dp962
sI71
(dp963
sI75
(dp964
sI76
(dp965
sI77
(dp966
sI79
(dp967
sI85
(dp968
sI86
(dp969
sI89
(dp970
sI91
(dp971
sI92
(dp972
sI98
(dp973
sI99
(dp974
ssI33
(dp975
I0
g128
sI5
g270
sI6
g302
sI8
g358
sI14
g538
sI16
g586
sI17
g616
sI23
g754
sI24
g777
sI25
g804
sI34
(dp976
sI38
(dp977
sI39
(dp978
sI43
(dp979
sI44
(dp980
sI49
(dp981
sI51
(dp982
sI53
(dp983
sI55
(dp984
sI58
(dp985
sI60
(dp986
sI66
(dp987
sI67
(dp988
sI73
(dp989
sI78
(dp990
sI80
(dp991
sI83
(dp992
sI89
(dp993
sI91
(dp994
sI92
(dp995
sI93
(dp996
sI95
(dp997
sI98
(dp998
ssI34
(dp999
I1
g156
sI11
g455
sI14
g539
sI24
g778
sI25
g805
sI30
g905
sI33
g976
sI36
(dp1000
sI37
(dp1001
sI39
(dp1002
sI40
(dp1003
sI41
(dp1004
sI42
(dp1005
sI45
(dp1006
sI47
(dp1007
sI48
(dp1008
sI52
(dp1009
sI53
(dp1010
sI58
(dp1011
sI69
(dp1012
sI70
(dp1013
sI71
(dp1014
sI79
(dp1015
sI82
(dp1016
sI83
(dp1017
sI86
(dp1018
sI90
(dp1019
sI92
(dp1020
sI93
(dp1021
sI94
(dp1022
sI97
(dp1023
ssI35
(dp1024
I1
g157
sI7
g332
sI9
g395
sI11
g456
sI13
g517
sI24
g779
sI25
g806
sI26
g828
sI39
(dp1025
sI41
(dp1026
sI46
(dp1027
sI53
(dp1028
sI55
(dp1029
sI56
(dp1030
sI58
(dp1031
sI61
(dp1032
sI63
(dp1033
sI65
(dp1034
sI74
(dp1035
sI76
(dp1036
sI79
(dp1037
sI80
(dp1038
sI81
(dp1039
sI83
(dp1040
sI85
(dp1041
sI87
(dp1042
sI94
(dp1043
sI95
(dp1044
ssI36
(dp1045
I34
g1000
sI71
(dp1046
sI49
(dp1047
sI81
(dp1048
sI39
(dp1049
sI72
(dp1050
sI7
g333
sI77
(dp1051
sI46
(dp1052
sI47
(dp1053
sI80
(dp1054
sI17
g617
sI75
(dp1055
sI53
(dp1056
sI56
(dp1057
sI26
g829
sI79
(dp1058
sI90
(dp1059
sI62
(dp1060
sI31
g927
ssI37
(dp1061
I8
g359
sI11
g457
sI15
g558
sI25
g807
sI26
g830
sI27
g852
sI34
g1001
sI39
(dp1062
sI46
(dp1063
sI53
(dp1064
sI54
(dp1065
sI57
(dp1066
sI60
(dp1067
sI62
(dp1068
sI64
(dp1069
sI67
(dp1070
sI72
(dp1071
sI74
(dp1072
sI80
(dp1073
sI82
(dp1074
sI84
(dp1075
sI90
(dp1076
sI92
(dp1077
sI94
(dp1078
sI95
(dp1079
sI96
(dp1080
sI99
(dp1081
ssI38
(dp1082
I0
g129
sI2
g181
sI3
g210
sI4
g242
sI9
g396
sI10
g427
sI11
g458
sI15
g559
sI21
g701
sI22
g729
sI24
g780
sI26
g831
sI31
g928
sI33
g977
sI46
(dp1083
sI47
(dp1084
sI49
(dp1085
sI54
(dp1086
sI56
(dp1087
sI57
(dp1088
sI61
(dp1089
sI63
(dp1090
sI71
(dp1091
sI72
(dp1092
sI77
(dp1093
sI89
(dp1094
sI90
(dp1095
sI94
(dp1096
sI97
(dp1097
sI99
(dp1098
ssI39
(dp1099
I1
g158
sI3
g211
sI4
g243
sI8
g360
sI19
g658
sI26
g832
sI29
g885
sI31
g929
sI33
g978
sI34
g1002
sI35
g1025
sI36
g1049
sI37
g1062
sI41
(dp1100
sI42
(dp1101
sI45
(dp1102
sI53
(dp1103
sI63
(dp1104
sI76
(dp1105
sI78
(dp1106
sI79
(dp1107
sI82
(dp1108
sI83
(dp1109
sI91
(dp1110
sI94
(dp1111
sI98
(dp1112
ssI40
(dp1113
I0
g130
sI3
g212
sI6
g303
sI7
g334
sI10
g428
sI16
g587
sI19
g659
sI22
g730
sI26
g833
sI29
g886
sI32
g950
sI34
g1003
sI45
(dp1114
sI48
(dp1115
sI50
(dp1116
sI53
(dp1117
sI57
(dp1118
sI59
(dp1119
sI60
(dp1120
sI63
(dp1121
sI67
(dp1122
sI68
(dp1123
sI70
(dp1124
sI71
(dp1125
sI73
(dp1126
sI74
(dp1127
sI77
(dp1128
sI78
(dp1129
sI80
(dp1130
sI84
(dp1131
sI89
(dp1132
sI99
(dp1133
ssI41
(dp1134
I5
g271
sI10
g429
sI12
g491
sI14
g540
sI17
g618
sI19
g660
sI21
g702
sI22
g731
sI24
g781
sI27
g858
sI34
g1004
sI35
g1026
sI39
g1100
sI45
(dp1135
sI46
(dp1136
sI56
(dp1137
sI59
(dp1138
sI60
(dp1139
sI64
(dp1140
sI71
(dp1141
sI74
(dp1142
sI76
(dp1143
sI77
(dp1144
sI79
(dp1145
sI81
(dp1146
sI84
(dp1147
sI86
(dp1148
sI87
(dp1149
sI89
(dp1150
sI98
(dp1151
ssI42
(dp1152
I2
g197
sI7
g335
sI13
g518
sI14
g541
sI15
g560
sI20
g678
sI26
g834
sI28
g867
sI30
g906
sI31
g930
sI34
g1005
sI39
g1101
sI44
(dp1153
sI45
(dp1154
sI47
(dp1155
sI48
(dp1156
sI58
(dp1157
sI60
(dp1158
sI61
(dp1159
sI62
(dp1160
sI68
(dp1161
sI69
(dp1162
sI70
(dp1163
sI77
(dp1164
sI80
(dp1165
sI81
(dp1166
sI83
(dp1167
sI84
(dp1168
sI90
(dp1169
sI92
(dp1170
sI94
(dp1171
ssI43
(dp1172
I3
g213
sI5
g272
sI6
g304
sI7
g336
sI9
g397
sI15
g561
sI21
g703
sI23
g755
sI29
g887
sI30
g907
sI31
g931
sI33
g979
sI44
(dp1173
sI46
(dp1174
sI53
(dp1175
sI55
(dp1176
sI56
(dp1177
sI59
(dp1178
sI63
(dp1179
sI66
(dp1180
sI69
(dp1181
sI71
(dp1182
sI72
(dp1183
sI75
(dp1184
sI79
(dp1185
sI82
(dp1186
sI87
(dp1187
sI88
(dp1188
sI89
(dp1189
sI91
(dp1190
sI92
(dp1191
sI97
(dp1192
sI98
(dp1193
ssI44
(dp1194
I3
g214
sI7
g337
sI8
g361
sI9
g398
sI11
g459
sI12
g492
sI24
g782
sI29
g888
sI31
g932
sI32
g951
sI33
g980
sI42
g1153
sI43
g1173
sI47
(dp1195
sI48
(dp1196
sI56
(dp1197
sI58
(dp1198
sI59
(dp1199
sI63
(dp1200
sI76
(dp1201
sI77
(dp1202
sI78
(dp1203
sI79
(dp1204
sI87
(dp1205
sI89
(dp1206
sI94
(dp1207
sI95
(dp1208
sI98
(dp1209
ssI45
(dp1210
I3
g215
sI4
g244
sI5
g273
sI11
g460
sI19
g661
sI23
g756
sI28
g868
sI31
g933
sI34
g1006
sI39
g1102
sI40
g1114
sI41
g1135
sI42
g1154
sI53
(dp1211
sI55
(dp1212
sI62
(dp1213
sI65
(dp1214
sI70
(dp1215
sI71
(dp1216
sI74
(dp1217
sI77
(dp1218
sI81
(dp1219
sI83
(dp1220
sI86
(dp1221
sI88
(dp1222
sI90
(dp1223
sI94
(dp1224
sI97
(dp1225
sI99
(dp1226
ssI46
(dp1227
I1
g159
sI7
g338
sI9
g399
sI10
g430
sI15
g562
sI16
g588
sI20
g679
sI23
g757
sI26
g835
sI35
g1027
sI36
g1052
sI37
g1063
sI38
g1083
sI41
g1136
sI43
g1174
sI47
(dp1228
sI48
(dp1229
sI49
(dp1230
sI63
(dp1231
sI64
(dp1232
sI65
(dp1233
sI67
(dp1234
sI68
(dp1235
sI69
(dp1236
sI70
(dp1237
sI76
(dp1238
sI80
(dp1239
sI87
(dp1240
sI88
(dp1241
sI93
(dp1242
ssI47
(dp1243
I5
g274
sI6
g305
sI7
g339
sI11
g461
sI14
g542
sI21
g704
sI22
g732
sI32
g952
sI34
g1007
sI36
g1053
sI38
g1084
sI42
g1155
sI44
g1195
sI46
g1228
sI48
(dp1244
sI53
(dp1245
sI60
(dp1246
sI63
(dp1247
sI68
(dp1248
sI71
(dp1249
sI73
(dp1250
sI76
(dp1251
sI83
(dp1252
sI87
(dp1253
sI91
(dp1254
sI95
(dp1255
sI96
(dp1256
ssI48
(dp1257
I0
g131
sI3
g216
sI11
g462
sI12
g493
sI13
g519
sI14
g543
sI16
g589
sI20
g680
sI21
g705
sI25
g808
sI26
g836
sI32
g953
sI34
g1008
sI40
g1115
sI42
g1156
sI44
g1196
sI46
g1229
sI47
g1244
sI49
(dp1258
sI50
(dp1259
sI60
(dp1260
sI61
(dp1261
sI62
(dp1262
sI63
(dp1263
sI69
(dp1264
sI71
(dp1265
sI72
(dp1266
sI74
(dp1267
sI81
(dp1268
sI87
(dp1269
sI91
(dp1270
sI93
(dp1271
sI95
(dp1272
sI98
(dp1273
sI99
(dp1274
ssI49
(dp1275
I2
g189
sI3
g217
sI5
g275
sI9
g400
sI10
g431
sI19
g662
sI21
g706
sI26
g837
sI28
g869
sI29
g889
sI31
g934
sI32
g954
sI33
g981
sI36
g1047
sI38
g1085
sI46
g1230
sI48
g1258
sI50
(dp1276
sI53
(dp1277
sI55
(dp1278
sI60
(dp1279
sI63
(dp1280
sI77
(dp1281
sI78
(dp1282
sI80
(dp1283
sI81
(dp1284
sI85
(dp1285
sI90
(dp1286
sI91
(dp1287
sI93
(dp1288
sI96
(dp1289
sI97
(dp1290
ssI50
(dp1291
I0
g132
sI6
g306
sI8
g362
sI9
g401
sI16
g590
sI18
g637
sI22
g733
sI29
g890
sI40
g1116
sI48
g1259
sI49
g1276
sI51
(dp1292
sI54
(dp1293
sI57
(dp1294
sI61
(dp1295
sI62
(dp1296
sI68
(dp1297
sI70
(dp1298
sI75
(dp1299
sI76
(dp1300
sI79
(dp1301
sI80
(dp1302
sI81
(dp1303
sI87
(dp1304
sI88
(dp1305
sI93
(dp1306
sI95
(dp1307
sI97
(dp1308
sI98
(dp1309
ssI51
(dp1310
I0
g133
sI6
g307
sI13
g520
sI16
g591
sI19
g663
sI31
g935
sI33
g982
sI50
g1292
sI54
(dp1311
sI56
(dp1312
sI57
(dp1313
sI59
(dp1314
sI60
(dp1315
sI64
(dp1316
sI65
(dp1317
sI67
(dp1318
sI69
(dp1319
sI73
(dp1320
sI74
(dp1321
sI79
(dp1322
sI82
(dp1323
sI84
(dp1324
sI85
(dp1325
sI89
(dp1326
sI90
(dp1327
sI99
(dp1328
ssI52
(dp1329
I0
g134
sI2
g192
sI3
g218
sI4
g245
sI8
g363
sI12
g494
sI14
g544
sI17
g619
sI21
g707
sI24
g783
sI34
g1009
sI55
(dp1330
sI57
(dp1331
sI58
(dp1332
sI69
(dp1333
sI71
(dp1334
sI72
(dp1335
sI80
(dp1336
sI83
(dp1337
sI85
(dp1338
sI91
(dp1339
sI92
(dp1340
sI97
(dp1341
sI98
(dp1342
ssI53
(dp1343
I5
g276
sI7
g340
sI10
g432
sI11
g463
sI14
g545
sI16
g592
sI25
g809
sI27
g856
sI30
g908
sI32
g955
sI33
g983
sI34
g1010
sI35
g1028
sI36
g1056
sI37
g1064
sI39
g1103
sI40
g1117
sI43
g1175
sI45
g1211
sI47
g1245
sI49
g1277
sI58
(dp1344
sI59
(dp1345
sI60
(dp1346
sI67
(dp1347
sI68
(dp1348
sI72
(dp1349
sI74
(dp1350
sI81
(dp1351
sI82
(dp1352
sI84
(dp1353
sI86
(dp1354
sI88
(dp1355
sI90
(dp1356
sI91
(dp1357
sI97
(dp1358
sI98
(dp1359
ssI54
(dp1360
I1
g160
sI4
g246
sI5
g277
sI11
g464
sI16
g593
sI17
g620
sI22
g734
sI23
g758
sI29
g891
sI31
g936
sI37
g1065
sI38
g1086
sI50
g1293
sI51
g1311
sI62
(dp1361
sI63
(dp1362
sI67
(dp1363
sI68
(dp1364
sI69
(dp1365
sI70
(dp1366
sI78
(dp1367
sI79
(dp1368
sI83
(dp1369
sI84
(dp1370
sI86
(dp1371
sI90
(dp1372
sI93
(dp1373
ssI55
(dp1374
I0
g135
sI33
g984
sI2
g194
sI35
g1029
sI97
(dp1375
sI49
g1278
sI65
(dp1376
sI7
g341
sI79
(dp1377
sI43
g1176
sI45
g1212
sI15
g563
sI17
g621
sI91
(dp1378
sI52
g1330
sI21
g708
sI27
g854
sI94
(dp1379
ssI56
(dp1380
I0
g136
sI1
g161
sI3
g219
sI5
g278
sI9
g402
sI10
g433
sI11
g465
sI21
g709
sI22
g735
sI26
g838
sI28
g870
sI32
g956
sI35
g1030
sI36
g1057
sI38
g1087
sI41
g1137
sI43
g1177
sI44
g1197
sI51
g1312
sI57
(dp1381
sI59
(dp1382
sI62
(dp1383
sI64
(dp1384
sI65
(dp1385
sI74
(dp1386
sI77
(dp1387
sI78
(dp1388
sI83
(dp1389
sI85
(dp1390
sI86
(dp1391
sI88
(dp1392
sI89
(dp1393
sI90
(dp1394
sI93
(dp1395
sI94
(dp1396
sI98
(dp1397
ssI57
(dp1398
I1
g162
sI7
g342
sI12
g495
sI18
g638
sI21
g710
sI22
g736
sI26
g839
sI37
g1066
sI38
g1088
sI40
g1118
sI50
g1294
sI51
g1313
sI52
g1331
sI56
g1381
sI59
(dp1399
sI70
(dp1400
sI73
(dp1401
sI74
(dp1402
sI81
(dp1403
sI84
(dp1404
sI86
(dp1405
sI87
(dp1406
sI89
(dp1407
sI93
(dp1408
sI95
(dp1409
ssI58
(dp1410
I4
g247
sI8
g364
sI10
g434
sI13
g521
sI14
g546
sI20
g681
sI21
g711
sI24
g784
sI30
g909
sI32
g957
sI33
g985
sI34
g1011
sI35
g1031
sI42
g1157
sI44
g1198
sI52
g1332
sI53
g1344
sI61
(dp1411
sI68
(dp1412
sI69
(dp1413
sI72
(dp1414
sI76
(dp1415
sI82
(dp1416
sI88
(dp1417
sI91
(dp1418
sI98
(dp1419
ssI59
(dp1420
I8
g365
sI10
g435
sI15
g564
sI29
g892
sI40
g1119
sI41
g1138
sI43
g1178
sI44
g1199
sI51
g1314
sI53
g1345
sI56
g1382
sI57
g1399
sI63
(dp1421
sI67
(dp1422
sI68
(dp1423
sI74
(dp1424
sI76
(dp1425
sI77
(dp1426
sI82
(dp1427
sI83
(dp1428
sI84
(dp1429
sI89
(dp1430
sI91
(dp1431
sI92
(dp1432
sI94
(dp1433
sI96
(dp1434
ssI60
(dp1435
I3
g220
sI5
g279
sI6
g308
sI7
g343
sI8
g366
sI11
g466
sI15
g565
sI18
g639
sI24
g785
sI26
g840
sI27
g855
sI28
g871
sI30
g910
sI33
g986
sI37
g1067
sI40
g1120
sI41
g1139
sI42
g1158
sI47
g1246
sI48
g1260
sI49
g1279
sI51
g1315
sI53
g1346
sI70
(dp1436
sI75
(dp1437
sI80
(dp1438
sI81
(dp1439
sI86
(dp1440
sI92
(dp1441
sI93
(dp1442
ssI61
(dp1443
I2
g188
sI3
g221
sI5
g280
sI8
g367
sI9
g403
sI15
g566
sI16
g594
sI17
g622
sI19
g664
sI21
g712
sI23
g759
sI24
g786
sI31
g937
sI35
g1032
sI38
g1089
sI42
g1159
sI48
g1261
sI50
g1295
sI58
g1411
sI63
(dp1444
sI66
(dp1445
sI67
(dp1446
sI70
(dp1447
sI77
(dp1448
sI79
(dp1449
sI85
(dp1450
sI89
(dp1451
sI90
(dp1452
sI94
(dp1453
sI97
(dp1454
sI99
(dp1455
ssI62
(dp1456
I1
g163
sI18
g640
sI23
g760
sI24
g787
sI25
g810
sI36
g1060
sI37
g1068
sI42
g1160
sI45
g1213
sI48
g1262
sI50
g1296
sI54
g1361
sI56
g1383
sI64
(dp1457
sI66
(dp1458
sI67
(dp1459
sI68
(dp1460
sI69
(dp1461
sI70
(dp1462
sI72
(dp1463
sI73
(dp1464
sI81
(dp1465
sI83
(dp1466
sI85
(dp1467
sI94
(dp1468
sI97
(dp1469
ssI63
(dp1470
I0
g137
sI1
g164
sI3
g222
sI5
g281
sI11
g467
sI14
g547
sI15
g567
sI19
g665
sI20
g682
sI23
g761
sI24
g788
sI28
g872
sI29
g893
sI31
g938
sI32
g958
sI35
g1033
sI38
g1090
sI39
g1104
sI40
g1121
sI43
g1179
sI44
g1200
sI46
g1231
sI47
g1247
sI48
g1263
sI49
g1280
sI54
g1362
sI59
g1421
sI61
g1444
sI74
(dp1471
sI79
(dp1472
sI80
(dp1473
sI82
(dp1474
sI83
(dp1475
sI85
(dp1476
sI88
(dp1477
sI89
(dp1478
sI92
(dp1479
sI99
(dp1480
ssI64
(dp1481
I4
g248
sI5
g282
sI6
g309
sI10
g436
sI13
g522
sI15
g568
sI18
g641
sI25
g811
sI30
g911
sI32
g959
sI37
g1069
sI41
g1140
sI46
g1232
sI51
g1316
sI56
g1384
sI62
g1457
sI72
(dp1482
sI74
(dp1483
sI82
(dp1484
sI86
(dp1485
sI88
(dp1486
sI93
(dp1487
sI96
(dp1488
sI97
(dp1489
sI99
(dp1490
ssI65
(dp1491
I0
g138
sI4
g249
sI6
g310
sI17
g623
sI18
g642
sI19
g666
sI20
g683
sI28
g873
sI29
g894
sI32
g960
sI35
g1034
sI45
g1214
sI46
g1233
sI51
g1317
sI55
g1376
sI56
g1385
sI68
(dp1492
sI69
(dp1493
sI70
(dp1494
sI76
(dp1495
sI80
(dp1496
sI83
(dp1497
sI84
(dp1498
sI86
(dp1499
sI92
(dp1500
sI94
(dp1501
ssI66
(dp1502
I32
g961
sI1
g165
sI67
(dp1503
sI3
g223
sI4
g250
sI5
g283
sI6
g311
sI33
g987
sI43
g1180
sI76
(dp1504
sI82
(dp1505
sI18
g643
sI19
g667
sI20
g684
sI62
g1458
sI90
(dp1506
sI75
(dp1507
sI28
g874
sI61
g1445
sI30
g912
ssI67
(dp1508
I1
g166
sI6
g312
sI7
g344
sI12
g496
sI13
g523
sI15
g569
sI18
g644
sI20
g685
sI25
g812
sI29
g895
sI31
g939
sI33
g988
sI37
g1070
sI40
g1122
sI46
g1234
sI51
g1318
sI53
g1347
sI54
g1363
sI59
g1422
sI61
g1446
sI62
g1459
sI66
g1503
sI71
(dp1509
sI72
(dp1510
sI73
(dp1511
sI78
(dp1512
sI79
(dp1513
sI81
(dp1514
sI88
(dp1515
sI91
(dp1516
sI99
(dp1517
ssI68
(dp1518
I0
g139
sI6
g313
sI8
g368
sI18
g645
sI21
g713
sI22
g737
sI23
g762
sI31
g940
sI32
g962
sI40
g1123
sI42
g1161
sI46
g1235
sI47
g1248
sI50
g1297
sI53
g1348
sI54
g1364
sI58
g1412
sI59
g1423
sI62
g1460
sI65
g1492
sI70
(dp1519
sI71
(dp1520
sI72
(dp1521
sI77
(dp1522
sI79
(dp1523
sI80
(dp1524
sI82
(dp1525
sI83
(dp1526
sI98
(dp1527
sI99
(dp1528
ssI69
(dp1529
I6
g314
sI8
g369
sI10
g437
sI11
g468
sI13
g524
sI17
g624
sI23
g763
sI24
g789
sI25
g813
sI30
g913
sI34
g1012
sI42
g1162
sI43
g1181
sI46
g1236
sI48
g1264
sI51
g1319
sI52
g1333
sI54
g1365
sI58
g1413
sI62
g1461
sI65
g1493
sI70
(dp1530
sI75
(dp1531
sI78
(dp1532
sI80
(dp1533
sI83
(dp1534
sI84
(dp1535
sI85
(dp1536
sI86
(dp1537
sI88
(dp1538
sI89
(dp1539
sI91
(dp1540
sI92
(dp1541
sI95
(dp1542
sI97
(dp1543
ssI70
(dp1544
I1
g167
sI11
g469
sI12
g497
sI16
g595
sI21
g714
sI25
g814
sI27
g853
sI28
g875
sI30
g914
sI34
g1013
sI40
g1124
sI42
g1163
sI45
g1215
sI46
g1237
sI50
g1298
sI54
g1366
sI57
g1400
sI60
g1436
sI61
g1447
sI62
g1462
sI65
g1494
sI68
g1519
sI69
g1530
sI71
(dp1545
sI76
(dp1546
sI80
(dp1547
sI81
(dp1548
sI83
(dp1549
sI92
(dp1550
sI93
(dp1551
sI94
(dp1552
ssI71
(dp1553
I3
g224
sI6
g315
sI11
g470
sI12
g498
sI13
g525
sI15
g570
sI17
g625
sI19
g668
sI31
g941
sI32
g963
sI34
g1014
sI36
g1046
sI38
g1091
sI40
g1125
sI41
g1141
sI43
g1182
sI45
g1216
sI47
g1249
sI48
g1265
sI52
g1334
sI67
g1509
sI68
g1520
sI70
g1545
sI73
(dp1554
sI78
(dp1555
sI85
(dp1556
sI89
(dp1557
sI91
(dp1558
ssI72
(dp1559
I1
g168
sI4
g251
sI6
g316
sI15
g571
sI16
g596
sI20
g686
sI21
g715
sI24
g790
sI36
g1050
sI37
g1071
sI38
g1092
sI43
g1183
sI48
g1266
sI52
g1335
sI53
g1349
sI58
g1414
sI62
g1463
sI64
g1482
sI67
g1510
sI68
g1521
sI73
(dp1560
sI74
(dp1561
sI88
(dp1562
sI91
(dp1563
sI93
(dp1564
sI94
(dp1565
sI97
(dp1566
ssI73
(dp1567
I0
g140
sI8
g370
sI10
g438
sI12
g499
sI16
g597
sI27
g857
sI28
g876
sI33
g989
sI40
g1126
sI47
g1250
sI51
g1320
sI57
g1401
sI62
g1464
sI67
g1511
sI71
g1554
sI72
g1560
sI74
(dp1568
sI80
(dp1569
sI82
(dp1570
sI84
(dp1571
sI85
(dp1572
sI88
(dp1573
sI91
(dp1574
sI94
(dp1575
sI95
(dp1576
sI99
(dp1577
ssI74
(dp1578
I0
g141
sI8
g371
sI9
g404
sI10
g439
sI11
g471
sI15
g572
sI19
g669
sI24
g791
sI25
g815
sI28
g877
sI30
g915
sI35
g1035
sI37
g1072
sI40
g1127
sI41
g1142
sI45
g1217
sI48
g1267
sI51
g1321
sI53
g1350
sI56
g1386
sI57
g1402
sI59
g1424
sI63
g1471
sI64
g1483
sI72
g1561
sI73
g1568
sI87
(dp1579
sI91
(dp1580
sI92
(dp1581
sI93
(dp1582
sI95
(dp1583
sI96
(dp1584
ssI75
(dp1585
I2
g196
sI6
g317
sI8
g372
sI9
g405
sI11
g472
sI12
g500
sI13
g526
sI17
g626
sI25
g816
sI32
g964
sI36
g1055
sI43
g1184
sI50
g1299
sI60
g1437
sI66
g1507
sI69
g1531
sI83
(dp1586
sI84
(dp1587
sI85
(dp1588
sI86
(dp1589
sI92
(dp1590
sI99
(dp1591
ssI76
(dp1592
I0
g142
sI1
g169
sI2
g185
sI3
g225
sI8
g373
sI10
g440
sI11
g473
sI12
g501
sI17
g627
sI25
g817
sI26
g841
sI30
g916
sI32
g965
sI35
g1036
sI39
g1105
sI41
g1143
sI44
g1201
sI46
g1238
sI47
g1251
sI50
g1300
sI58
g1415
sI59
g1425
sI65
g1495
sI66
g1504
sI70
g1546
sI78
(dp1593
sI80
(dp1594
sI83
(dp1595
sI86
(dp1596
sI93
(dp1597
sI95
(dp1598
ssI77
(dp1599
I1
g170
sI2
g182
sI3
g226
sI4
g252
sI7
g345
sI8
g374
sI11
g474
sI12
g502
sI15
g573
sI18
g646
sI20
g687
sI26
g842
sI28
g878
sI31
g942
sI32
g966
sI36
g1051
sI38
g1093
sI40
g1128
sI41
g1144
sI42
g1164
sI44
g1202
sI45
g1218
sI49
g1281
sI56
g1387
sI59
g1426
sI61
g1448
sI68
g1522
sI78
(dp1600
sI82
(dp1601
sI88
(dp1602
sI94
(dp1603
sI96
(dp1604
sI97
(dp1605
ssI78
(dp1606
I1
g171
sI5
g284
sI8
g375
sI11
g475
sI14
g548
sI18
g647
sI20
g688
sI23
g764
sI24
g792
sI25
g818
sI27
g863
sI30
g917
sI33
g990
sI39
g1106
sI40
g1129
sI44
g1203
sI49
g1282
sI54
g1367
sI56
g1388
sI67
g1512
sI69
g1532
sI71
g1555
sI76
g1593
sI77
g1600
sI79
(dp1607
sI80
(dp1608
sI82
(dp1609
sI84
(dp1610
sI86
(dp1611
sI88
(dp1612
sI89
(dp1613
sI92
(dp1614
sI93
(dp1615
ssI79
(dp1616
I3
g227
sI9
g406
sI12
g503
sI13
g527
sI14
g549
sI16
g598
sI19
g670
sI23
g765
sI25
g819
sI29
g896
sI32
g967
sI34
g1015
sI35
g1037
sI36
g1058
sI39
g1107
sI41
g1145
sI43
g1185
sI44
g1204
sI50
g1301
sI51
g1322
sI54
g1368
sI55
g1377
sI61
g1449
sI63
g1472
sI67
g1513
sI68
g1523
sI78
g1607
sI81
(dp1617
sI83
(dp1618
sI94
(dp1619
sI96
(dp1620
ssI80
(dp1621
I4
g253
sI6
g318
sI7
g346
sI8
g376
sI16
g599
sI17
g628
sI21
g716
sI22
g738
sI24
g793
sI28
g879
sI30
g918
sI31
g943
sI33
g991
sI35
g1038
sI36
g1054
sI37
g1073
sI40
g1130
sI42
g1165
sI46
g1239
sI49
g1283
sI50
g1302
sI52
g1336
sI60
g1438
sI63
g1473
sI65
g1496
sI68
g1524
sI69
g1533
sI70
g1547
sI73
g1569
sI76
g1594
sI78
g1608
sI81
(dp1622
sI89
(dp1623
sI90
(dp1624
sI92
(dp1625
sI94
(dp1626
sI95
(dp1627
sI99
(dp1628
ssI81
(dp1629
I9
g407
sI11
g476
sI12
g504
sI17
g629
sI26
g843
sI31
g944
sI35
g1039
sI36
g1048
sI41
g1146
sI42
g1166
sI45
g1219
sI48
g1268
sI49
g1284
sI50
g1303
sI53
g1351
sI57
g1403
sI60
g1439
sI62
g1465
sI67
g1514
sI70
g1548
sI79
g1617
sI80
g1622
sI83
(dp1630
sI87
(dp1631
sI90
(dp1632
sI91
(dp1633
sI92
(dp1634
sI93
(dp1635
sI96
(dp1636
ssI82
(dp1637
I2
g193
sI3
g228
sI5
g285
sI6
g319
sI8
g377
sI9
g408
sI24
g794
sI29
g897
sI34
g1016
sI37
g1074
sI39
g1108
sI43
g1186
sI51
g1323
sI53
g1352
sI58
g1416
sI59
g1427
sI63
g1474
sI64
g1484
sI66
g1505
sI68
g1525
sI73
g1570
sI77
g1601
sI78
g1609
sI83
(dp1638
sI86
(dp1639
sI88
(dp1640
sI89
(dp1641
sI98
(dp1642
sI99
(dp1643
ssI83
(dp1644
I0
g143
sI2
g191
sI3
g229
sI6
g320
sI7
g347
sI8
g378
sI12
g505
sI19
g671
sI24
g795
sI25
g820
sI30
g919
sI31
g945
sI33
g992
sI34
g1017
sI35
g1040
sI39
g1109
sI42
g1167
sI45
g1220
sI47
g1252
sI52
g1337
sI54
g1369
sI56
g1389
sI59
g1428
sI62
g1466
sI63
g1475
sI65
g1497
sI68
g1526
sI69
g1534
sI70
g1549
sI75
g1586
sI76
g1595
sI79
g1618
sI81
g1630
sI82
g1638
sI84
(dp1645
sI87
(dp1646
sI88
(dp1647
sI90
(dp1648
ssI84
(dp1649
I1
g172
sI7
g348
sI11
g477
sI16
g600
sI26
g844
sI28
g880
sI37
g1075
sI40
g1131
sI41
g1147
sI42
g1168
sI51
g1324
sI53
g1353
sI54
g1370
sI57
g1404
sI59
g1429
sI65
g1498
sI69
g1535
sI73
g1571
sI75
g1587
sI78
g1610
sI83
g1645
sI86
(dp1650
sI87
(dp1651
sI91
(dp1652
sI94
(dp1653
sI95
(dp1654
sI96
(dp1655
sI99
(dp1656
ssI85
(dp1657
I1
g173
sI8
g379
sI9
g409
sI10
g441
sI12
g506
sI13
g528
sI15
g574
sI16
g601
sI20
g689
sI23
g766
sI24
g796
sI27
g865
sI29
g898
sI32
g968
sI35
g1041
sI49
g1285
sI51
g1325
sI52
g1338
sI56
g1390
sI61
g1450
sI62
g1467
sI63
g1476
sI69
g1536
sI71
g1556
sI73
g1572
sI75
g1588
sI89
(dp1658
sI93
(dp1659
ssI86
(dp1660
I5
g286
sI8
g380
sI9
g410
sI15
g575
sI20
g690
sI22
g739
sI23
g767
sI28
g881
sI32
g969
sI34
g1018
sI41
g1148
sI45
g1221
sI53
g1354
sI54
g1371
sI56
g1391
sI57
g1405
sI60
g1440
sI64
g1485
sI65
g1499
sI69
g1537
sI75
g1589
sI76
g1596
sI78
g1611
sI82
g1639
sI84
g1650
sI91
(dp1661
sI95
(dp1662
sI99
(dp1663
ssI87
(dp1664
I3
g230
sI4
g254
sI5
g287
sI9
g411
sI10
g442
sI11
g478
sI15
g576
sI16
g602
sI18
g648
sI21
g717
sI35
g1042
sI41
g1149
sI43
g1187
sI44
g1205
sI46
g1240
sI47
g1253
sI48
g1269
sI50
g1304
sI57
g1406
sI74
g1579
sI81
g1631
sI83
g1646
sI84
g1651
sI88
(dp1665
sI93
(dp1666
ssI88
(dp1667
I1
g174
sI10
g443
sI11
g479
sI14
g550
sI19
g672
sI22
g740
sI25
g821
sI27
g859
sI43
g1188
sI45
g1222
sI46
g1241
sI50
g1305
sI53
g1355
sI56
g1392
sI58
g1417
sI63
g1477
sI64
g1486
sI67
g1515
sI69
g1538
sI72
g1562
sI73
g1573
sI77
g1602
sI78
g1612
sI82
g1640
sI83
g1647
sI87
g1665
sI93
(dp1668
sI97
(dp1669
ssI89
(dp1670
I2
g195
sI3
g231
sI6
g321
sI8
g381
sI10
g444
sI20
g691
sI23
g768
sI24
g797
sI27
g860
sI29
g899
sI32
g970
sI33
g993
sI38
g1094
sI40
g1132
sI41
g1150
sI43
g1189
sI44
g1206
sI51
g1326
sI56
g1393
sI57
g1407
sI59
g1430
sI61
g1451
sI63
g1478
sI69
g1539
sI71
g1557
sI78
g1613
sI80
g1623
sI82
g1641
sI85
g1658
sI95
(dp1671
sI98
(dp1672
ssI90
(dp1673
I1
g175
sI3
g232
sI7
g349
sI8
g382
sI9
g412
sI12
g507
sI15
g577
sI17
g630
sI21
g718
sI22
g741
sI25
g822
sI31
g946
sI34
g1019
sI36
g1059
sI37
g1076
sI38
g1095
sI42
g1169
sI45
g1223
sI49
g1286
sI51
g1327
sI53
g1356
sI54
g1372
sI56
g1394
sI61
g1452
sI66
g1506
sI80
g1624
sI81
g1632
sI83
g1648
sI96
(dp1674
sI98
(dp1675
ssI91
(dp1676
I0
g144
sI4
g255
sI5
g288
sI8
g383
sI12
g508
sI16
g603
sI18
g649
sI20
g692
sI21
g719
sI22
g742
sI27
g861
sI28
g882
sI29
g900
sI30
g920
sI32
g971
sI33
g994
sI39
g1110
sI43
g1190
sI47
g1254
sI48
g1270
sI49
g1287
sI52
g1339
sI53
g1357
sI55
g1378
sI58
g1418
sI59
g1431
sI67
g1516
sI69
g1540
sI71
g1558
sI72
g1563
sI73
g1574
sI74
g1580
sI81
g1633
sI84
g1652
sI86
g1661
sI93
(dp1677
sI95
(dp1678
sI96
(dp1679
sI97
(dp1680
ssI92
(dp1681
I4
g256
sI9
g413
sI16
g604
sI21
g720
sI22
g743
sI26
g845
sI29
g901
sI30
g921
sI32
g972
sI33
g995
sI34
g1020
sI37
g1077
sI42
g1170
sI43
g1191
sI52
g1340
sI59
g1432
sI60
g1441
sI63
g1479
sI65
g1500
sI69
g1541
sI70
g1550
sI74
g1581
sI75
g1590
sI78
g1614
sI80
g1625
sI81
g1634
sI93
(dp1682
sI95
(dp1683
sI99
(dp1684
ssI93
(dp1685
I3
g233
sI4
g257
sI11
g480
sI13
g529
sI20
g693
sI23
g769
sI24
g798
sI30
g922
sI31
g947
sI33
g996
sI34
g1021
sI46
g1242
sI48
g1271
sI49
g1288
sI50
g1306
sI54
g1373
sI56
g1395
sI57
g1408
sI60
g1442
sI64
g1487
sI70
g1551
sI72
g1564
sI74
g1582
sI76
g1597
sI78
g1615
sI81
g1635
sI85
g1659
sI87
g1666
sI88
g1668
sI91
g1677
sI92
g1682
sI95
(dp1686
sI97
(dp1687
ssI94
(dp1688
I0
g145
sI1
g176
sI4
g258
sI8
g384
sI9
g414
sI10
g445
sI12
g509
sI15
g578
sI16
g605
sI20
g694
sI23
g770
sI27
g864
sI30
g923
sI34
g1022
sI35
g1043
sI37
g1078
sI38
g1096
sI39
g1111
sI42
g1171
sI44
g1207
sI45
g1224
sI55
g1379
sI56
g1396
sI59
g1433
sI61
g1453
sI62
g1468
sI65
g1501
sI70
g1552
sI72
g1565
sI73
g1575
sI77
g1603
sI79
g1619
sI80
g1626
sI84
g1653
sI95
(dp1689
ssI95
(dp1690
I11
g481
sI12
g510
sI14
g551
sI15
g579
sI18
g650
sI21
g721
sI22
g744
sI23
g771
sI25
g823
sI26
g846
sI28
g883
sI30
g924
sI31
g948
sI33
g997
sI35
g1044
sI37
g1079
sI44
g1208
sI47
g1255
sI48
g1272
sI50
g1307
sI57
g1409
sI69
g1542
sI73
g1576
sI74
g1583
sI76
g1598
sI80
g1627
sI84
g1654
sI86
g1662
sI89
g1671
sI91
g1678
sI92
g1683
sI93
g1686
sI94
g1689
sI97
(dp1691
sI98
(dp1692
ssI96
(dp1693
I64
g1488
sI3
g234
sI37
g1080
sI81
g1636
sI91
g1679
sI9
g415
sI74
g1584
sI12
g511
sI77
g1604
sI14
g552
sI47
g1256
sI16
g606
sI49
g1289
sI18
g651
sI79
g1620
sI84
g1655
sI21
g722
sI22
g745
sI23
g772
sI90
g1674
sI59
g1434
ssI97
(dp1694
I1
g177
sI5
g289
sI8
g385
sI14
g553
sI15
g580
sI16
g607
sI17
g631
sI20
g695
sI22
g746
sI24
g799
sI26
g847
sI27
g851
sI30
g925
sI34
g1023
sI38
g1097
sI43
g1192
sI45
g1225
sI49
g1290
sI50
g1308
sI52
g1341
sI53
g1358
sI55
g1375
sI61
g1454
sI62
g1469
sI64
g1489
sI69
g1543
sI72
g1566
sI77
g1605
sI88
g1669
sI91
g1680
sI93
g1687
sI95
g1691
ssI98
(dp1695
I9
g416
sI10
g446
sI13
g530
sI21
g723
sI26
g848
sI32
g973
sI33
g998
sI39
g1112
sI41
g1151
sI43
g1193
sI44
g1209
sI48
g1273
sI50
g1309
sI52
g1342
sI53
g1359
sI56
g1397
sI58
g1419
sI68
g1527
sI82
g1642
sI89
g1672
sI90
g1675
sI95
g1692
ssI99
(dp1696
I7
g350
sI9
g417
sI11
g482
sI20
g696
sI23
g773
sI24
g800
sI32
g974
sI37
g1081
sI38
g1098
sI40
g1133
sI45
g1226
sI48
g1274
sI51
g1328
sI61
g1455
sI63
g1480
sI64
g1490
sI67
g1517
sI68
g1528
sI73
g1577
sI75
g1591
sI80
g1628
sI82
g1643
sI84
g1656
sI86
g1663
sI92
g1684
sssS'adj'
p1697
g117
sbsI1
g0
(g8
g2
Ntp1698
Rp1699
(dp1700
g12
(dp1701
I0
(dp1702
sI1
(dp1703
sI2
(dp1704
sI3
(dp1705
sI4
(dp1706
sI5
(dp1707
sI6
(dp1708
sI7
(dp1709
sI8
(dp1710
sI9
(dp1711
sI10
(dp1712
sI11
(dp1713
sI12
(dp1714
sI13
(dp1715
sI14
(dp1716
sI15
(dp1717
sI16
(dp1718
sI17
(dp1719
sI18
(dp1720
sI19
(dp1721
sI20
(dp1722
sI21
(dp1723
sI22
(dp1724
sI23
(dp1725
sI24
(dp1726
sI25
(dp1727
sI26
(dp1728
sI27
(dp1729
sI28
(dp1730
sI29
(dp1731
sI30
(dp1732
sI31
(dp1733
sI32
(dp1734
sI33
(dp1735
sI34
(dp1736
sI35
(dp1737
sI36
(dp1738
sI37
(dp1739
sI38
(dp1740
sI39
(dp1741
sI40
(dp1742
sI41
(dp1743
sI42
(dp1744
sI43
(dp1745
sI44
(dp1746
sI45
(dp1747
sI46
(dp1748
sI47
(dp1749
sI48
(dp1750
sI49
(dp1751
sI50
(dp1752
sI51
(dp1753
sI52
(dp1754
sI53
(dp1755
sI54
(dp1756
sI55
(dp1757
sI56
(dp1758
sI57
(dp1759
sI58
(dp1760
sI59
(dp1761
sI60
(dp1762
sI61
(dp1763
sI62
(dp1764
sI63
(dp1765
sI64
(dp1766
sI65
(dp1767
sI66
(dp1768
sI67
(dp1769
sI68
(dp1770
sI69
(dp1771
sI70
(dp1772
sI71
(dp1773
sI72
(dp1774
sI73
(dp1775
sI74
(dp1776
sI75
(dp1777
sI76
(dp1778
sI77
(dp1779
sI78
(dp1780
sI79
(dp1781
sI80
(dp1782
sI81
(dp1783
sI82
(dp1784
sI83
(dp1785
sI84
(dp1786
sI85
(dp1787
sI86
(dp1788
sI87
(dp1789
sI88
(dp1790
sI89
(dp1791
sI90
(dp1792
sI91
(dp1793
sI92
(dp1794
sI93
(dp1795
sI94
(dp1796
sI95
(dp1797
sI96
(dp1798
sI97
(dp1799
sI98
(dp1800
sI99
(dp1801
ssg114
(dp1802
sg116
(dp1803
I0
(dp1804
I5
(dp1805
sI9
(dp1806
sI12
(dp1807
sI21
(dp1808
sI30
(dp1809
sI31
(dp1810
sI33
(dp1811
sI35
(dp1812
sI36
(dp1813
sI39
(dp1814
sI44
(dp1815
sI47
(dp1816
sI49
(dp1817
sI50
(dp1818
sI54
(dp1819
sI56
(dp1820
sI57
(dp1821
sI59
(dp1822
sI65
(dp1823
sI66
(dp1824
sI76
(dp1825
sI82
(dp1826
sI85
(dp1827
sI89
(dp1828
sI90
(dp1829
sI93
(dp1830
ssI1
(dp1831
I5
(dp1832
sI12
(dp1833
sI18
(dp1834
sI24
(dp1835
sI28
(dp1836
sI30
(dp1837
sI35
(dp1838
sI36
(dp1839
sI39
(dp1840
sI40
(dp1841
sI41
(dp1842
sI42
(dp1843
sI44
(dp1844
sI45
(dp1845
sI46
(dp1846
sI51
(dp1847
sI52
(dp1848
sI54
(dp1849
sI55
(dp1850
sI57
(dp1851
sI62
(dp1852
sI64
(dp1853
sI70
(dp1854
sI74
(dp1855
sI78
(dp1856
sI81
(dp1857
sI89
(dp1858
sI91
(dp1859
sI97
(dp1860
sI98
(dp1861
ssI2
(dp1862
I7
(dp1863
sI16
(dp1864
sI21
(dp1865
sI23
(dp1866
sI24
(dp1867
sI27
(dp1868
sI29
(dp1869
sI30
(dp1870
sI31
(dp1871
sI32
(dp1872
sI36
(dp1873
sI42
(dp1874
sI44
(dp1875
sI45
(dp1876
sI52
(dp1877
sI53
(dp1878
sI54
(dp1879
sI57
(dp1880
sI58
(dp1881
sI75
(dp1882
sI76
(dp1883
sI82
(dp1884
sI84
(dp1885
sI87
(dp1886
sI88
(dp1887
sI91
(dp1888
sI93
(dp1889
sI97
(dp1890
ssI3
(dp1891
I5
(dp1892
sI6
(dp1893
sI7
(dp1894
sI8
(dp1895
sI11
(dp1896
sI15
(dp1897
sI17
(dp1898
sI19
(dp1899
sI21
(dp1900
sI22
(dp1901
sI28
(dp1902
sI36
(dp1903
sI37
(dp1904
sI39
(dp1905
sI45
(dp1906
sI47
(dp1907
sI50
(dp1908
sI56
(dp1909
sI63
(dp1910
sI64
(dp1911
sI67
(dp1912
sI69
(dp1913
sI73
(dp1914
sI80
(dp1915
sI85
(dp1916
sI87
(dp1917
sI90
(dp1918
ssI4
(dp1919
I6
(dp1920
sI9
(dp1921
sI11
(dp1922
sI15
(dp1923
sI17
(dp1924
sI20
(dp1925
sI22
(dp1926
sI23
(dp1927
sI31
(dp1928
sI32
(dp1929
sI33
(dp1930
sI37
(dp1931
sI55
(dp1932
sI56
(dp1933
sI62
(dp1934
sI65
(dp1935
sI67
(dp1936
sI72
(dp1937
sI77
(dp1938
sI78
(dp1939
sI82
(dp1940
sI84
(dp1941
sI87
(dp1942
sI88
(dp1943
ssI5
(dp1944
I0
g1805
sI1
g1832
sI3
g1892
sI8
(dp1945
sI12
(dp1946
sI14
(dp1947
sI20
(dp1948
sI34
(dp1949
sI36
(dp1950
sI37
(dp1951
sI44
(dp1952
sI47
(dp1953
sI48
(dp1954
sI51
(dp1955
sI53
(dp1956
sI54
(dp1957
sI56
(dp1958
sI62
(dp1959
sI67
(dp1960
sI72
(dp1961
sI74
(dp1962
sI77
(dp1963
sI79
(dp1964
sI80
(dp1965
sI82
(dp1966
sI83
(dp1967
sI89
(dp1968
sI90
(dp1969
sI94
(dp1970
sI96
(dp1971
sI97
(dp1972
ssI6
(dp1973
I3
g1893
sI4
g1920
sI10
(dp1974
sI12
(dp1975
sI21
(dp1976
sI24
(dp1977
sI26
(dp1978
sI28
(dp1979
sI29
(dp1980
sI31
(dp1981
sI38
(dp1982
sI46
(dp1983
sI48
(dp1984
sI50
(dp1985
sI51
(dp1986
sI56
(dp1987
sI57
(dp1988
sI61
(dp1989
sI66
(dp1990
sI68
(dp1991
sI70
(dp1992
sI72
(dp1993
sI76
(dp1994
sI78
(dp1995
sI87
(dp1996
sI89
(dp1997
sI90
(dp1998
sI91
(dp1999
sI96
(dp2000
ssI7
(dp2001
I2
g1863
sI3
g1894
sI11
(dp2002
sI14
(dp2003
sI19
(dp2004
sI20
(dp2005
sI22
(dp2006
sI30
(dp2007
sI36
(dp2008
sI37
(dp2009
sI38
(dp2010
sI40
(dp2011
sI41
(dp2012
sI49
(dp2013
sI51
(dp2014
sI59
(dp2015
sI60
(dp2016
sI62
(dp2017
sI65
(dp2018
sI69
(dp2019
sI70
(dp2020
sI71
(dp2021
sI83
(dp2022
sI86
(dp2023
sI88
(dp2024
sI93
(dp2025
sI95
(dp2026
sI96
(dp2027
sI99
(dp2028
ssI8
(dp2029
I3
g1895
sI5
g1945
sI9
(dp2030
sI11
(dp2031
sI12
(dp2032
sI18
(dp2033
sI21
(dp2034
sI23
(dp2035
sI26
(dp2036
sI29
(dp2037
sI49
(dp2038
sI51
(dp2039
sI54
(dp2040
sI56
(dp2041
sI61
(dp2042
sI65
(dp2043
sI68
(dp2044
sI73
(dp2045
sI75
(dp2046
sI78
(dp2047
sI81
(dp2048
sI82
(dp2049
sI85
(dp2050
sI88
(dp2051
sI95
(dp2052
ssI9
(dp2053
I0
g1806
sI4
g1921
sI8
g2030
sI14
(dp2054
sI18
(dp2055
sI20
(dp2056
sI22
(dp2057
sI24
(dp2058
sI26
(dp2059
sI28
(dp2060
sI39
(dp2061
sI41
(dp2062
sI43
(dp2063
sI47
(dp2064
sI48
(dp2065
sI52
(dp2066
sI54
(dp2067
sI56
(dp2068
sI57
(dp2069
sI58
(dp2070
sI65
(dp2071
sI68
(dp2072
sI69
(dp2073
sI75
(dp2074
sI78
(dp2075
sI79
(dp2076
sI81
(dp2077
sI85
(dp2078
sI87
(dp2079
sI88
(dp2080
sI89
(dp2081
sI90
(dp2082
sI92
(dp2083
sI97
(dp2084
ssI10
(dp2085
I6
g1974
sI11
(dp2086
sI15
(dp2087
sI21
(dp2088
sI23
(dp2089
sI25
(dp2090
sI27
(dp2091
sI28
(dp2092
sI31
(dp2093
sI33
(dp2094
sI42
(dp2095
sI45
(dp2096
sI48
(dp2097
sI49
(dp2098
sI51
(dp2099
sI53
(dp2100
sI54
(dp2101
sI57
(dp2102
sI59
(dp2103
sI64
(dp2104
sI65
(dp2105
sI66
(dp2106
sI67
(dp2107
sI73
(dp2108
sI77
(dp2109
sI87
(dp2110
sI88
(dp2111
sI89
(dp2112
sI91
(dp2113
sI92
(dp2114
sI94
(dp2115
sI96
(dp2116
sI97
(dp2117
ssI11
(dp2118
I3
g1896
sI4
g1922
sI7
g2002
sI8
g2031
sI10
g2086
sI13
(dp2119
sI15
(dp2120
sI18
(dp2121
sI20
(dp2122
sI26
(dp2123
sI27
(dp2124
sI31
(dp2125
sI36
(dp2126
sI38
(dp2127
sI41
(dp2128
sI42
(dp2129
sI47
(dp2130
sI48
(dp2131
sI49
(dp2132
sI50
(dp2133
sI51
(dp2134
sI52
(dp2135
sI56
(dp2136
sI57
(dp2137
sI58
(dp2138
sI61
(dp2139
sI63
(dp2140
sI64
(dp2141
sI66
(dp2142
sI67
(dp2143
sI71
(dp2144
sI85
(dp2145
sI88
(dp2146
sI91
(dp2147
sI95
(dp2148
sI96
(dp2149
sI98
(dp2150
ssI12
(dp2151
I0
g1807
sI1
g1833
sI5
g1946
sI6
g1975
sI8
g2032
sI14
(dp2152
sI16
(dp2153
sI31
(dp2154
sI36
(dp2155
sI37
(dp2156
sI38
(dp2157
sI43
(dp2158
sI44
(dp2159
sI46
(dp2160
sI49
(dp2161
sI52
(dp2162
sI55
(dp2163
sI56
(dp2164
sI62
(dp2165
sI64
(dp2166
sI67
(dp2167
sI68
(dp2168
sI69
(dp2169
sI70
(dp2170
sI75
(dp2171
sI77
(dp2172
sI79
(dp2173
sI81
(dp2174
sI82
(dp2175
sI86
(dp2176
sI96
(dp2177
sI98
(dp2178
ssI13
(dp2179
I11
g2119
sI18
(dp2180
sI21
(dp2181
sI22
(dp2182
sI23
(dp2183
sI28
(dp2184
sI32
(dp2185
sI33
(dp2186
sI36
(dp2187
sI37
(dp2188
sI39
(dp2189
sI41
(dp2190
sI42
(dp2191
sI43
(dp2192
sI44
(dp2193
sI45
(dp2194
sI50
(dp2195
sI57
(dp2196
sI60
(dp2197
sI64
(dp2198
sI66
(dp2199
sI69
(dp2200
sI70
(dp2201
sI73
(dp2202
sI74
(dp2203
sI76
(dp2204
sI79
(dp2205
sI83
(dp2206
sI84
(dp2207
sI86
(dp2208
sI90
(dp2209
sI93
(dp2210
sI94
(dp2211
sI99
(dp2212
ssI14
(dp2213
I5
g1947
sI7
g2003
sI9
g2054
sI12
g2152
sI16
(dp2214
sI18
(dp2215
sI20
(dp2216
sI31
(dp2217
sI34
(dp2218
sI35
(dp2219
sI36
(dp2220
sI39
(dp2221
sI40
(dp2222
sI42
(dp2223
sI48
(dp2224
sI52
(dp2225
sI54
(dp2226
sI56
(dp2227
sI60
(dp2228
sI61
(dp2229
sI62
(dp2230
sI65
(dp2231
sI72
(dp2232
sI73
(dp2233
sI75
(dp2234
sI77
(dp2235
sI81
(dp2236
sI82
(dp2237
sI83
(dp2238
sI90
(dp2239
sI92
(dp2240
sI93
(dp2241
sI99
(dp2242
ssI15
(dp2243
I3
g1897
sI4
g1923
sI10
g2087
sI11
g2120
sI17
(dp2244
sI20
(dp2245
sI21
(dp2246
sI24
(dp2247
sI27
(dp2248
sI29
(dp2249
sI30
(dp2250
sI31
(dp2251
sI32
(dp2252
sI36
(dp2253
sI38
(dp2254
sI39
(dp2255
sI40
(dp2256
sI44
(dp2257
sI46
(dp2258
sI47
(dp2259
sI55
(dp2260
sI60
(dp2261
sI63
(dp2262
sI65
(dp2263
sI68
(dp2264
sI69
(dp2265
sI73
(dp2266
sI79
(dp2267
sI80
(dp2268
sI82
(dp2269
sI84
(dp2270
sI85
(dp2271
sI89
(dp2272
sI92
(dp2273
sI96
(dp2274
sI97
(dp2275
ssI16
(dp2276
I2
g1864
sI12
g2153
sI14
g2214
sI19
(dp2277
sI26
(dp2278
sI28
(dp2279
sI35
(dp2280
sI36
(dp2281
sI41
(dp2282
sI47
(dp2283
sI50
(dp2284
sI52
(dp2285
sI56
(dp2286
sI59
(dp2287
sI61
(dp2288
sI63
(dp2289
sI67
(dp2290
sI71
(dp2291
sI76
(dp2292
sI83
(dp2293
sI90
(dp2294
sI92
(dp2295
sI94
(dp2296
sI96
(dp2297
sI97
(dp2298
sI98
(dp2299
ssI17
(dp2300
I3
g1898
sI4
g1924
sI15
g2244
sI19
(dp2301
sI27
(dp2302
sI28
(dp2303
sI35
(dp2304
sI37
(dp2305
sI39
(dp2306
sI44
(dp2307
sI46
(dp2308
sI52
(dp2309
sI69
(dp2310
sI70
(dp2311
sI75
(dp2312
sI76
(dp2313
sI78
(dp2314
sI82
(dp2315
sI87
(dp2316
sI89
(dp2317
sI91
(dp2318
sI92
(dp2319
sI96
(dp2320
ssI18
(dp2321
I1
g1834
sI8
g2033
sI9
g2055
sI11
g2121
sI13
g2180
sI14
g2215
sI19
(dp2322
sI25
(dp2323
sI26
(dp2324
sI28
(dp2325
sI29
(dp2326
sI32
(dp2327
sI38
(dp2328
sI43
(dp2329
sI46
(dp2330
sI49
(dp2331
sI53
(dp2332
sI54
(dp2333
sI55
(dp2334
sI56
(dp2335
sI60
(dp2336
sI62
(dp2337
sI64
(dp2338
sI67
(dp2339
sI72
(dp2340
sI74
(dp2341
sI77
(dp2342
sI78
(dp2343
sI86
(dp2344
sI87
(dp2345
sI92
(dp2346
sI95
(dp2347
ssI19
(dp2348
I3
g1899
sI7
g2004
sI16
g2277
sI17
g2301
sI18
g2322
sI20
(dp2349
sI25
(dp2350
sI29
(dp2351
sI30
(dp2352
sI36
(dp2353
sI38
(dp2354
sI39
(dp2355
sI40
(dp2356
sI43
(dp2357
sI50
(dp2358
sI55
(dp2359
sI58
(dp2360
sI62
(dp2361
sI63
(dp2362
sI67
(dp2363
sI68
(dp2364
sI72
(dp2365
sI78
(dp2366
sI79
(dp2367
sI80
(dp2368
sI82
(dp2369
sI84
(dp2370
sI87
(dp2371
sI98
(dp2372
sI99
(dp2373
ssI20
(dp2374
I4
g1925
sI5
g1948
sI7
g2005
sI9
g2056
sI11
g2122
sI14
g2216
sI15
g2245
sI19
g2349
sI22
(dp2375
sI25
(dp2376
sI28
(dp2377
sI31
(dp2378
sI33
(dp2379
sI37
(dp2380
sI40
(dp2381
sI41
(dp2382
sI43
(dp2383
sI48
(dp2384
sI49
(dp2385
sI50
(dp2386
sI54
(dp2387
sI56
(dp2388
sI58
(dp2389
sI63
(dp2390
sI66
(dp2391
sI69
(dp2392
sI74
(dp2393
sI80
(dp2394
sI82
(dp2395
sI83
(dp2396
sI85
(dp2397
sI87
(dp2398
sI91
(dp2399
sI92
(dp2400
sI93
(dp2401
sI99
(dp2402
ssI21
(dp2403
I0
g1808
sI2
g1865
sI3
g1900
sI6
g1976
sI8
g2034
sI10
g2088
sI13
g2181
sI15
g2246
sI23
(dp2404
sI24
(dp2405
sI27
(dp2406
sI35
(dp2407
sI38
(dp2408
sI39
(dp2409
sI41
(dp2410
sI43
(dp2411
sI45
(dp2412
sI46
(dp2413
sI50
(dp2414
sI53
(dp2415
sI58
(dp2416
sI60
(dp2417
sI62
(dp2418
sI67
(dp2419
sI71
(dp2420
sI75
(dp2421
sI76
(dp2422
sI80
(dp2423
sI97
(dp2424
ssI22
(dp2425
I3
g1901
sI4
g1926
sI7
g2006
sI9
g2057
sI13
g2182
sI20
g2375
sI23
(dp2426
sI24
(dp2427
sI25
(dp2428
sI29
(dp2429
sI30
(dp2430
sI41
(dp2431
sI42
(dp2432
sI43
(dp2433
sI46
(dp2434
sI49
(dp2435
sI53
(dp2436
sI57
(dp2437
sI59
(dp2438
sI62
(dp2439
sI64
(dp2440
sI67
(dp2441
sI69
(dp2442
sI72
(dp2443
sI80
(dp2444
sI81
(dp2445
sI84
(dp2446
sI88
(dp2447
sI89
(dp2448
sI91
(dp2449
sI96
(dp2450
ssI23
(dp2451
I2
g1866
sI4
g1927
sI8
g2035
sI10
g2089
sI13
g2183
sI21
g2404
sI22
g2426
sI27
(dp2452
sI28
(dp2453
sI29
(dp2454
sI35
(dp2455
sI38
(dp2456
sI39
(dp2457
sI40
(dp2458
sI43
(dp2459
sI59
(dp2460
sI64
(dp2461
sI68
(dp2462
sI70
(dp2463
sI71
(dp2464
sI72
(dp2465
sI75
(dp2466
sI84
(dp2467
sI93
(dp2468
sI96
(dp2469
ssI24
(dp2470
I1
g1835
sI2
g1867
sI6
g1977
sI9
g2058
sI15
g2247
sI21
g2405
sI22
g2427
sI25
(dp2471
sI27
(dp2472
sI28
(dp2473
sI31
(dp2474
sI35
(dp2475
sI36
(dp2476
sI39
(dp2477
sI41
(dp2478
sI49
(dp2479
sI50
(dp2480
sI52
(dp2481
sI54
(dp2482
sI59
(dp2483
sI62
(dp2484
sI66
(dp2485
sI68
(dp2486
sI69
(dp2487
sI74
(dp2488
sI75
(dp2489
sI81
(dp2490
sI84
(dp2491
sI85
(dp2492
sI89
(dp2493
sI90
(dp2494
sI96
(dp2495
sI98
(dp2496
ssI25
(dp2497
I10
g2090
sI18
g2323
sI19
g2350
sI20
g2376
sI22
g2428
sI24
g2471
sI29
(dp2498
sI37
(dp2499
sI40
(dp2500
sI41
(dp2501
sI46
(dp2502
sI47
(dp2503
sI48
(dp2504
sI52
(dp2505
sI58
(dp2506
sI60
(dp2507
sI62
(dp2508
sI64
(dp2509
sI67
(dp2510
sI70
(dp2511
sI77
(dp2512
sI78
(dp2513
sI79
(dp2514
sI80
(dp2515
sI83
(dp2516
sI84
(dp2517
sI86
(dp2518
sI87
(dp2519
sI92
(dp2520
sI93
(dp2521
sI94
(dp2522
sI97
(dp2523
sI99
(dp2524
ssI26
(dp2525
I35
(dp2526
sI6
g1978
sI91
(dp2527
sI8
g2036
sI9
g2059
sI79
(dp2528
sI11
g2123
sI44
(dp2529
sI45
(dp2530
sI75
(dp2531
sI47
(dp2532
sI16
g2278
sI81
(dp2533
sI18
g2324
sI51
(dp2534
sI99
(dp2535
sI57
(dp2536
sI90
(dp2537
sI59
(dp2538
sI93
(dp2539
ssI27
(dp2540
I2
g1868
sI10
g2091
sI11
g2124
sI15
g2248
sI17
g2302
sI21
g2406
sI23
g2452
sI24
g2472
sI30
(dp2541
sI33
(dp2542
sI34
(dp2543
sI35
(dp2544
sI36
(dp2545
sI39
(dp2546
sI44
(dp2547
sI45
(dp2548
sI46
(dp2549
sI47
(dp2550
sI50
(dp2551
sI51
(dp2552
sI52
(dp2553
sI53
(dp2554
sI55
(dp2555
sI61
(dp2556
sI62
(dp2557
sI64
(dp2558
sI66
(dp2559
sI68
(dp2560
sI72
(dp2561
sI77
(dp2562
sI83
(dp2563
ssI28
(dp2564
I1
g1836
sI3
g1902
sI6
g1979
sI9
g2060
sI10
g2092
sI13
g2184
sI16
g2279
sI17
g2303
sI18
g2325
sI20
g2377
sI23
g2453
sI24
g2473
sI31
(dp2565
sI34
(dp2566
sI35
(dp2567
sI37
(dp2568
sI42
(dp2569
sI47
(dp2570
sI49
(dp2571
sI59
(dp2572
sI68
(dp2573
sI74
(dp2574
sI78
(dp2575
sI82
(dp2576
sI84
(dp2577
sI99
(dp2578
ssI29
(dp2579
I2
g1869
sI6
g1980
sI8
g2037
sI15
g2249
sI18
g2326
sI19
g2351
sI22
g2429
sI23
g2454
sI25
g2498
sI40
(dp2580
sI49
(dp2581
sI51
(dp2582
sI54
(dp2583
sI67
(dp2584
sI70
(dp2585
sI72
(dp2586
sI74
(dp2587
sI83
(dp2588
sI84
(dp2589
sI87
(dp2590
sI88
(dp2591
sI90
(dp2592
sI95
(dp2593
sI97
(dp2594
ssI30
(dp2595
I0
g1809
sI1
g1837
sI2
g1870
sI7
g2007
sI15
g2250
sI19
g2352
sI22
g2430
sI27
g2541
sI33
(dp2596
sI34
(dp2597
sI35
(dp2598
sI37
(dp2599
sI51
(dp2600
sI58
(dp2601
sI67
(dp2602
sI68
(dp2603
sI71
(dp2604
sI76
(dp2605
sI78
(dp2606
sI83
(dp2607
sI85
(dp2608
sI86
(dp2609
sI92
(dp2610
sI93
(dp2611
ssI31
(dp2612
I0
g1810
sI2
g1871
sI4
g1928
sI6
g1981
sI10
g2093
sI11
g2125
sI12
g2154
sI14
g2217
sI15
g2251
sI20
g2378
sI24
g2474
sI28
g2565
sI32
(dp2613
sI33
(dp2614
sI35
(dp2615
sI42
(dp2616
sI47
(dp2617
sI48
(dp2618
sI51
(dp2619
sI52
(dp2620
sI56
(dp2621
sI57
(dp2622
sI58
(dp2623
sI60
(dp2624
sI63
(dp2625
sI65
(dp2626
sI77
(dp2627
sI79
(dp2628
sI81
(dp2629
sI82
(dp2630
sI86
(dp2631
sI90
(dp2632
sI94
(dp2633
sI95
(dp2634
sI97
(dp2635
ssI32
(dp2636
I2
g1872
sI4
g1929
sI13
g2185
sI15
g2252
sI18
g2327
sI31
g2613
sI33
(dp2637
sI35
(dp2638
sI39
(dp2639
sI44
(dp2640
sI46
(dp2641
sI47
(dp2642
sI49
(dp2643
sI50
(dp2644
sI51
(dp2645
sI52
(dp2646
sI63
(dp2647
sI66
(dp2648
sI78
(dp2649
sI79
(dp2650
sI80
(dp2651
sI81
(dp2652
sI82
(dp2653
sI86
(dp2654
sI89
(dp2655
sI90
(dp2656
sI93
(dp2657
sI96
(dp2658
sI98
(dp2659
ssI33
(dp2660
I0
g1811
sI4
g1930
sI10
g2094
sI13
g2186
sI20
g2379
sI27
g2542
sI30
g2596
sI31
g2614
sI32
g2637
sI34
(dp2661
sI38
(dp2662
sI39
(dp2663
sI42
(dp2664
sI44
(dp2665
sI49
(dp2666
sI51
(dp2667
sI61
(dp2668
sI64
(dp2669
sI75
(dp2670
sI81
(dp2671
sI82
(dp2672
sI83
(dp2673
sI84
(dp2674
sI86
(dp2675
sI90
(dp2676
sI91
(dp2677
sI93
(dp2678
ssI34
(dp2679
I5
g1949
sI14
g2218
sI27
g2543
sI28
g2566
sI30
g2597
sI33
g2661
sI36
(dp2680
sI38
(dp2681
sI39
(dp2682
sI40
(dp2683
sI41
(dp2684
sI44
(dp2685
sI46
(dp2686
sI47
(dp2687
sI49
(dp2688
sI52
(dp2689
sI55
(dp2690
sI60
(dp2691
sI62
(dp2692
sI64
(dp2693
sI71
(dp2694
sI72
(dp2695
sI75
(dp2696
sI76
(dp2697
sI78
(dp2698
sI83
(dp2699
sI87
(dp2700
sI89
(dp2701
sI97
(dp2702
ssI35
(dp2703
I0
g1812
sI1
g1838
sI14
g2219
sI16
g2280
sI17
g2304
sI21
g2407
sI23
g2455
sI24
g2475
sI26
g2526
sI27
g2544
sI28
g2567
sI30
g2598
sI31
g2615
sI32
g2638
sI41
(dp2704
sI42
(dp2705
sI43
(dp2706
sI44
(dp2707
sI47
(dp2708
sI51
(dp2709
sI56
(dp2710
sI57
(dp2711
sI64
(dp2712
sI76
(dp2713
sI81
(dp2714
sI87
(dp2715
sI88
(dp2716
sI92
(dp2717
sI98
(dp2718
sI99
(dp2719
ssI36
(dp2720
I0
g1813
sI1
g1839
sI2
g1873
sI3
g1903
sI5
g1950
sI7
g2008
sI11
g2126
sI12
g2155
sI13
g2187
sI14
g2220
sI15
g2253
sI16
g2281
sI19
g2353
sI24
g2476
sI27
g2545
sI34
g2680
sI39
(dp2721
sI49
(dp2722
sI53
(dp2723
sI61
(dp2724
sI62
(dp2725
sI78
(dp2726
sI79
(dp2727
sI85
(dp2728
sI89
(dp2729
sI90
(dp2730
sI93
(dp2731
sI99
(dp2732
ssI37
(dp2733
I3
g1904
sI4
g1931
sI5
g1951
sI7
g2009
sI12
g2156
sI13
g2188
sI17
g2305
sI20
g2380
sI25
g2499
sI28
g2568
sI30
g2599
sI38
(dp2734
sI42
(dp2735
sI45
(dp2736
sI49
(dp2737
sI52
(dp2738
sI55
(dp2739
sI62
(dp2740
sI65
(dp2741
sI76
(dp2742
sI89
(dp2743
sI94
(dp2744
sI96
(dp2745
sI97
(dp2746
sI98
(dp2747
ssI38
(dp2748
I6
g1982
sI7
g2010
sI11
g2127
sI12
g2157
sI15
g2254
sI18
g2328
sI19
g2354
sI21
g2408
sI23
g2456
sI33
g2662
sI34
g2681
sI37
g2734
sI45
(dp2749
sI56
(dp2750
sI60
(dp2751
sI67
(dp2752
sI68
(dp2753
sI69
(dp2754
sI70
(dp2755
sI71
(dp2756
sI72
(dp2757
sI78
(dp2758
sI81
(dp2759
sI84
(dp2760
sI86
(dp2761
sI87
(dp2762
sI89
(dp2763
sI96
(dp2764
ssI39
(dp2765
I0
g1814
sI1
g1840
sI3
g1905
sI9
g2061
sI13
g2189
sI14
g2221
sI15
g2255
sI17
g2306
sI19
g2355
sI21
g2409
sI23
g2457
sI24
g2477
sI27
g2546
sI32
g2639
sI33
g2663
sI34
g2682
sI36
g2721
sI44
(dp2766
sI47
(dp2767
sI51
(dp2768
sI52
(dp2769
sI55
(dp2770
sI64
(dp2771
sI65
(dp2772
sI78
(dp2773
sI81
(dp2774
sI82
(dp2775
sI87
(dp2776
sI89
(dp2777
sI90
(dp2778
sI91
(dp2779
sI97
(dp2780
sI98
(dp2781
ssI40
(dp2782
I1
g1841
sI7
g2011
sI14
g2222
sI15
g2256
sI19
g2356
sI20
g2381
sI23
g2458
sI25
g2500
sI29
g2580
sI34
g2683
sI45
(dp2783
sI48
(dp2784
sI60
(dp2785
sI64
(dp2786
sI65
(dp2787
sI68
(dp2788
sI75
(dp2789
sI76
(dp2790
sI83
(dp2791
sI85
(dp2792
sI92
(dp2793
sI97
(dp2794
ssI41
(dp2795
I1
g1842
sI7
g2012
sI9
g2062
sI11
g2128
sI13
g2190
sI16
g2282
sI20
g2382
sI21
g2410
sI22
g2431
sI24
g2478
sI25
g2501
sI34
g2684
sI35
g2704
sI46
(dp2796
sI51
(dp2797
sI58
(dp2798
sI63
(dp2799
sI64
(dp2800
sI65
(dp2801
sI68
(dp2802
sI71
(dp2803
sI72
(dp2804
sI73
(dp2805
sI82
(dp2806
sI85
(dp2807
sI90
(dp2808
sI94
(dp2809
sI95
(dp2810
sI96
(dp2811
sI97
(dp2812
sI98
(dp2813
ssI42
(dp2814
I1
g1843
sI2
g1874
sI10
g2095
sI11
g2129
sI13
g2191
sI14
g2223
sI22
g2432
sI28
g2569
sI31
g2616
sI33
g2664
sI35
g2705
sI37
g2735
sI43
(dp2815
sI45
(dp2816
sI46
(dp2817
sI47
(dp2818
sI55
(dp2819
sI57
(dp2820
sI61
(dp2821
sI63
(dp2822
sI66
(dp2823
sI76
(dp2824
sI83
(dp2825
sI84
(dp2826
sI85
(dp2827
sI87
(dp2828
sI88
(dp2829
sI95
(dp2830
sI97
(dp2831
ssI43
(dp2832
I9
g2063
sI12
g2158
sI13
g2192
sI18
g2329
sI19
g2357
sI20
g2383
sI21
g2411
sI22
g2433
sI23
g2459
sI35
g2706
sI42
g2815
sI46
(dp2833
sI54
(dp2834
sI55
(dp2835
sI63
(dp2836
sI72
(dp2837
sI73
(dp2838
sI83
(dp2839
sI87
(dp2840
sI89
(dp2841
sI93
(dp2842
sI95
(dp2843
ssI44
(dp2844
I0
g1815
sI1
g1844
sI2
g1875
sI5
g1952
sI12
g2159
sI13
g2193
sI15
g2257
sI17
g2307
sI26
g2529
sI27
g2547
sI32
g2640
sI33
g2665
sI34
g2685
sI35
g2707
sI39
g2766
sI48
(dp2845
sI61
(dp2846
sI66
(dp2847
sI67
(dp2848
sI68
(dp2849
sI70
(dp2850
sI71
(dp2851
sI73
(dp2852
sI80
(dp2853
sI83
(dp2854
sI84
(dp2855
sI89
(dp2856
sI90
(dp2857
sI91
(dp2858
sI93
(dp2859
sI94
(dp2860
sI96
(dp2861
ssI45
(dp2862
I1
g1845
sI2
g1876
sI3
g1906
sI10
g2096
sI13
g2194
sI21
g2412
sI26
g2530
sI27
g2548
sI37
g2736
sI38
g2749
sI40
g2783
sI42
g2816
sI48
(dp2863
sI56
(dp2864
sI58
(dp2865
sI59
(dp2866
sI66
(dp2867
sI77
(dp2868
sI82
(dp2869
sI83
(dp2870
sI87
(dp2871
sI88
(dp2872
sI89
(dp2873
sI96
(dp2874
sI98
(dp2875
sI99
(dp2876
ssI46
(dp2877
I1
g1846
sI6
g1983
sI12
g2160
sI15
g2258
sI17
g2308
sI18
g2330
sI21
g2413
sI22
g2434
sI25
g2502
sI27
g2549
sI32
g2641
sI34
g2686
sI41
g2796
sI42
g2817
sI43
g2833
sI48
(dp2878
sI50
(dp2879
sI51
(dp2880
sI58
(dp2881
sI59
(dp2882
sI60
(dp2883
sI64
(dp2884
sI69
(dp2885
sI77
(dp2886
sI78
(dp2887
sI84
(dp2888
sI86
(dp2889
sI91
(dp2890
sI92
(dp2891
sI94
(dp2892
sI95
(dp2893
sI96
(dp2894
ssI47
(dp2895
I0
g1816
sI3
g1907
sI5
g1953
sI9
g2064
sI11
g2130
sI15
g2259
sI16
g2283
sI25
g2503
sI26
g2532
sI27
g2550
sI28
g2570
sI31
g2617
sI32
g2642
sI34
g2687
sI35
g2708
sI39
g2767
sI42
g2818
sI48
(dp2896
sI49
(dp2897
sI61
(dp2898
sI71
(dp2899
sI79
(dp2900
sI80
(dp2901
sI82
(dp2902
sI84
(dp2903
sI86
(dp2904
sI91
(dp2905
ssI48
(dp2906
I5
g1954
sI6
g1984
sI9
g2065
sI10
g2097
sI11
g2131
sI14
g2224
sI20
g2384
sI25
g2504
sI31
g2618
sI40
g2784
sI44
g2845
sI45
g2863
sI46
g2878
sI47
g2896
sI49
(dp2907
sI50
(dp2908
sI55
(dp2909
sI56
(dp2910
sI57
(dp2911
sI59
(dp2912
sI60
(dp2913
sI62
(dp2914
sI63
(dp2915
sI65
(dp2916
sI66
(dp2917
sI67
(dp2918
sI83
(dp2919
sI87
(dp2920
sI90
(dp2921
sI91
(dp2922
sI93
(dp2923
sI94
(dp2924
sI99
(dp2925
ssI49
(dp2926
I0
g1817
sI7
g2013
sI8
g2038
sI10
g2098
sI11
g2132
sI12
g2161
sI18
g2331
sI20
g2385
sI22
g2435
sI24
g2479
sI28
g2571
sI29
g2581
sI32
g2643
sI33
g2666
sI34
g2688
sI36
g2722
sI37
g2737
sI47
g2897
sI48
g2907
sI51
(dp2927
sI58
(dp2928
sI59
(dp2929
sI67
(dp2930
sI69
(dp2931
sI73
(dp2932
sI78
(dp2933
sI81
(dp2934
sI85
(dp2935
sI86
(dp2936
sI88
(dp2937
sI91
(dp2938
sI92
(dp2939
sI93
(dp2940
sI98
(dp2941
sI99
(dp2942
ssI50
(dp2943
I0
g1818
sI3
g1908
sI6
g1985
sI11
g2133
sI13
g2195
sI16
g2284
sI19
g2358
sI20
g2386
sI21
g2414
sI24
g2480
sI27
g2551
sI32
g2644
sI46
g2879
sI48
g2908
sI56
(dp2944
sI60
(dp2945
sI65
(dp2946
sI66
(dp2947
sI67
(dp2948
sI68
(dp2949
sI70
(dp2950
sI72
(dp2951
sI79
(dp2952
sI84
(dp2953
sI90
(dp2954
sI91
(dp2955
sI92
(dp2956
sI97
(dp2957
ssI51
(dp2958
I1
g1847
sI5
g1955
sI6
g1986
sI7
g2014
sI8
g2039
sI10
g2099
sI11
g2134
sI26
g2534
sI27
g2552
sI29
g2582
sI30
g2600
sI31
g2619
sI32
g2645
sI33
g2667
sI35
g2709
sI39
g2768
sI41
g2797
sI46
g2880
sI49
g2927
sI52
(dp2959
sI53
(dp2960
sI60
(dp2961
sI63
(dp2962
sI64
(dp2963
sI67
(dp2964
sI68
(dp2965
sI71
(dp2966
sI76
(dp2967
sI77
(dp2968
sI78
(dp2969
sI80
(dp2970
sI86
(dp2971
sI87
(dp2972
sI88
(dp2973
sI90
(dp2974
sI92
(dp2975
sI96
(dp2976
ssI52
(dp2977
I1
g1848
sI2
g1877
sI9
g2066
sI11
g2135
sI12
g2162
sI14
g2225
sI16
g2285
sI17
g2309
sI24
g2481
sI25
g2505
sI27
g2553
sI31
g2620
sI32
g2646
sI34
g2689
sI37
g2738
sI39
g2769
sI51
g2959
sI54
(dp2978
sI65
(dp2979
sI66
(dp2980
sI69
(dp2981
sI74
(dp2982
sI75
(dp2983
sI76
(dp2984
sI82
(dp2985
sI87
(dp2986
sI92
(dp2987
sI93
(dp2988
sI99
(dp2989
ssI53
(dp2990
I96
(dp2991
sI65
(dp2992
sI2
g1878
sI67
(dp2993
sI36
g2723
sI5
g1956
sI72
(dp2994
sI92
(dp2995
sI10
g2100
sI75
(dp2996
sI98
(dp2997
sI80
(dp2998
sI18
g2332
sI51
g2960
sI21
g2415
sI22
g2436
sI57
(dp2999
sI27
g2554
sI60
(dp3000
sI74
(dp3001
sI62
(dp3002
ssI54
(dp3003
I0
g1819
sI1
g1849
sI2
g1879
sI5
g1957
sI8
g2040
sI9
g2067
sI10
g2101
sI14
g2226
sI18
g2333
sI20
g2387
sI24
g2482
sI29
g2583
sI43
g2834
sI52
g2978
sI61
(dp3004
sI65
(dp3005
sI66
(dp3006
sI81
(dp3007
sI84
(dp3008
sI86
(dp3009
sI88
(dp3010
sI89
(dp3011
sI95
(dp3012
ssI55
(dp3013
I1
g1850
sI4
g1932
sI12
g2163
sI15
g2260
sI18
g2334
sI19
g2359
sI27
g2555
sI34
g2690
sI37
g2739
sI39
g2770
sI42
g2819
sI43
g2835
sI48
g2909
sI58
(dp3014
sI60
(dp3015
sI63
(dp3016
sI65
(dp3017
sI66
(dp3018
sI67
(dp3019
sI69
(dp3020
sI71
(dp3021
sI75
(dp3022
sI77
(dp3023
sI78
(dp3024
sI79
(dp3025
sI80
(dp3026
sI81
(dp3027
sI87
(dp3028
sI91
(dp3029
sI92
(dp3030
sI94
(dp3031
sI98
(dp3032
ssI56
(dp3033
I0
g1820
sI3
g1909
sI4
g1933
sI5
g1958
sI6
g1987
sI8
g2041
sI9
g2068
sI11
g2136
sI12
g2164
sI14
g2227
sI16
g2286
sI18
g2335
sI20
g2388
sI31
g2621
sI35
g2710
sI38
g2750
sI45
g2864
sI48
g2910
sI50
g2944
sI66
(dp3034
sI69
(dp3035
sI71
(dp3036
sI73
(dp3037
sI75
(dp3038
sI77
(dp3039
sI82
(dp3040
sI87
(dp3041
sI91
(dp3042
sI94
(dp3043
sI95
(dp3044
sI99
(dp3045
ssI57
(dp3046
I0
g1821
sI1
g1851
sI2
g1880
sI6
g1988
sI9
g2069
sI10
g2102
sI11
g2137
sI13
g2196
sI22
g2437
sI26
g2536
sI31
g2622
sI35
g2711
sI42
g2820
sI48
g2911
sI53
g2999
sI58
(dp3047
sI61
(dp3048
sI65
(dp3049
sI68
(dp3050
sI76
(dp3051
sI77
(dp3052
sI85
(dp3053
sI86
(dp3054
sI91
(dp3055
sI92
(dp3056
sI94
(dp3057
sI96
(dp3058
sI99
(dp3059
ssI58
(dp3060
I2
g1881
sI9
g2070
sI11
g2138
sI19
g2360
sI20
g2389
sI21
g2416
sI25
g2506
sI30
g2601
sI31
g2623
sI41
g2798
sI45
g2865
sI46
g2881
sI49
g2928
sI55
g3014
sI57
g3047
sI59
(dp3061
sI61
(dp3062
sI64
(dp3063
sI66
(dp3064
sI69
(dp3065
sI71
(dp3066
sI74
(dp3067
sI81
(dp3068
sI83
(dp3069
sI85
(dp3070
sI87
(dp3071
sI88
(dp3072
sI91
(dp3073
sI92
(dp3074
sI95
(dp3075
sI96
(dp3076
sI98
(dp3077
ssI59
(dp3078
I0
g1822
sI7
g2015
sI10
g2103
sI16
g2287
sI22
g2438
sI23
g2460
sI24
g2483
sI26
g2538
sI28
g2572
sI45
g2866
sI46
g2882
sI48
g2912
sI49
g2929
sI58
g3061
sI62
(dp3079
sI63
(dp3080
sI68
(dp3081
sI79
(dp3082
sI86
(dp3083
sI87
(dp3084
sI89
(dp3085
sI93
(dp3086
sI95
(dp3087
sI96
(dp3088
sI99
(dp3089
ssI60
(dp3090
I7
g2016
sI13
g2197
sI14
g2228
sI15
g2261
sI18
g2336
sI21
g2417
sI25
g2507
sI31
g2624
sI34
g2691
sI38
g2751
sI40
g2785
sI46
g2883
sI48
g2913
sI50
g2945
sI51
g2961
sI53
g3000
sI55
g3015
sI61
(dp3091
sI63
(dp3092
sI64
(dp3093
sI65
(dp3094
sI70
(dp3095
sI73
(dp3096
sI74
(dp3097
sI85
(dp3098
sI94
(dp3099
sI95
(dp3100
sI97
(dp3101
ssI61
(dp3102
I6
g1989
sI8
g2042
sI11
g2139
sI14
g2229
sI16
g2288
sI27
g2556
sI33
g2668
sI36
g2724
sI42
g2821
sI44
g2846
sI47
g2898
sI54
g3004
sI57
g3048
sI58
g3062
sI60
g3091
sI63
(dp3103
sI66
(dp3104
sI67
(dp3105
sI68
(dp3106
sI71
(dp3107
sI74
(dp3108
sI75
(dp3109
sI76
(dp3110
sI81
(dp3111
sI84
(dp3112
sI91
(dp3113
sI96
(dp3114
ssI62
(dp3115
I1
g1852
sI4
g1934
sI5
g1959
sI7
g2017
sI12
g2165
sI14
g2230
sI18
g2337
sI19
g2361
sI21
g2418
sI22
g2439
sI24
g2484
sI25
g2508
sI27
g2557
sI34
g2692
sI36
g2725
sI37
g2740
sI48
g2914
sI53
g3002
sI59
g3079
sI63
(dp3116
sI75
(dp3117
sI83
(dp3118
sI95
(dp3119
sI96
(dp3120
sI98
(dp3121
sI99
(dp3122
ssI63
(dp3123
I3
g1910
sI11
g2140
sI15
g2262
sI16
g2289
sI19
g2362
sI20
g2390
sI31
g2625
sI32
g2647
sI41
g2799
sI42
g2822
sI43
g2836
sI48
g2915
sI51
g2962
sI55
g3016
sI59
g3080
sI60
g3092
sI61
g3103
sI62
g3116
sI67
(dp3124
sI68
(dp3125
sI69
(dp3126
sI74
(dp3127
sI75
(dp3128
sI80
(dp3129
sI83
(dp3130
sI84
(dp3131
sI87
(dp3132
sI88
(dp3133
sI89
(dp3134
sI91
(dp3135
sI96
(dp3136
ssI64
(dp3137
I1
g1853
sI3
g1911
sI10
g2104
sI11
g2141
sI12
g2166
sI13
g2198
sI18
g2338
sI22
g2440
sI23
g2461
sI25
g2509
sI27
g2558
sI33
g2669
sI34
g2693
sI35
g2712
sI39
g2771
sI40
g2786
sI41
g2800
sI46
g2884
sI51
g2963
sI58
g3063
sI60
g3093
sI68
(dp3138
sI69
(dp3139
sI72
(dp3140
sI73
(dp3141
sI75
(dp3142
sI76
(dp3143
sI86
(dp3144
sI88
(dp3145
sI90
(dp3146
sI94
(dp3147
sI95
(dp3148
ssI65
(dp3149
I0
g1823
sI4
g1935
sI7
g2018
sI8
g2043
sI9
g2071
sI10
g2105
sI14
g2231
sI15
g2263
sI31
g2626
sI37
g2741
sI39
g2772
sI40
g2787
sI41
g2801
sI48
g2916
sI50
g2946
sI52
g2979
sI53
g2992
sI54
g3005
sI55
g3017
sI57
g3049
sI60
g3094
sI68
(dp3150
sI71
(dp3151
sI77
(dp3152
sI83
(dp3153
sI84
(dp3154
sI86
(dp3155
sI90
(dp3156
sI97
(dp3157
ssI66
(dp3158
I0
g1824
sI6
g1990
sI10
g2106
sI11
g2142
sI13
g2199
sI20
g2391
sI24
g2485
sI27
g2559
sI32
g2648
sI42
g2823
sI44
g2847
sI45
g2867
sI48
g2917
sI50
g2947
sI52
g2980
sI54
g3006
sI55
g3018
sI56
g3034
sI58
g3064
sI61
g3104
sI74
(dp3159
sI80
(dp3160
sI83
(dp3161
sI84
(dp3162
sI90
(dp3163
sI96
(dp3164
sI98
(dp3165
ssI67
(dp3166
I3
g1912
sI4
g1936
sI5
g1960
sI10
g2107
sI11
g2143
sI12
g2167
sI16
g2290
sI18
g2339
sI19
g2363
sI21
g2419
sI22
g2441
sI25
g2510
sI29
g2584
sI30
g2602
sI38
g2752
sI44
g2848
sI48
g2918
sI49
g2930
sI50
g2948
sI51
g2964
sI53
g2993
sI55
g3019
sI61
g3105
sI63
g3124
sI68
(dp3167
sI73
(dp3168
sI80
(dp3169
sI83
(dp3170
sI96
(dp3171
sI97
(dp3172
sI99
(dp3173
ssI68
(dp3174
I6
g1991
sI8
g2044
sI9
g2072
sI12
g2168
sI15
g2264
sI19
g2364
sI23
g2462
sI24
g2486
sI27
g2560
sI28
g2573
sI30
g2603
sI38
g2753
sI40
g2788
sI41
g2802
sI44
g2849
sI50
g2949
sI51
g2965
sI57
g3050
sI59
g3081
sI61
g3106
sI63
g3125
sI64
g3138
sI65
g3150
sI67
g3167
sI75
(dp3175
sI77
(dp3176
sI78
(dp3177
sI86
(dp3178
sI87
(dp3179
sI88
(dp3180
sI96
(dp3181
sI99
(dp3182
ssI69
(dp3183
I3
g1913
sI7
g2019
sI9
g2073
sI12
g2169
sI13
g2200
sI15
g2265
sI17
g2310
sI20
g2392
sI22
g2442
sI24
g2487
sI38
g2754
sI46
g2885
sI49
g2931
sI52
g2981
sI55
g3020
sI56
g3035
sI58
g3065
sI63
g3126
sI64
g3139
sI74
(dp3184
sI78
(dp3185
sI81
(dp3186
sI82
(dp3187
sI85
(dp3188
sI90
(dp3189
sI91
(dp3190
sI92
(dp3191
sI97
(dp3192
ssI70
(dp3193
I1
g1854
sI6
g1992
sI7
g2020
sI12
g2170
sI13
g2201
sI17
g2311
sI23
g2463
sI25
g2511
sI29
g2585
sI38
g2755
sI44
g2850
sI50
g2950
sI60
g3095
sI72
(dp3194
sI75
(dp3195
sI80
(dp3196
sI81
(dp3197
sI83
(dp3198
sI85
(dp3199
sI89
(dp3200
sI92
(dp3201
sI94
(dp3202
sI96
(dp3203
sI97
(dp3204
sI99
(dp3205
ssI71
(dp3206
I7
g2021
sI11
g2144
sI16
g2291
sI21
g2420
sI23
g2464
sI30
g2604
sI34
g2694
sI38
g2756
sI41
g2803
sI44
g2851
sI47
g2899
sI51
g2966
sI55
g3021
sI56
g3036
sI58
g3066
sI61
g3107
sI65
g3151
sI74
(dp3207
sI75
(dp3208
sI77
(dp3209
sI79
(dp3210
sI82
(dp3211
sI86
(dp3212
sI88
(dp3213
sI90
(dp3214
sI91
(dp3215
sI95
(dp3216
sI96
(dp3217
sI97
(dp3218
ssI72
(dp3219
I4
g1937
sI5
g1961
sI6
g1993
sI14
g2232
sI18
g2340
sI19
g2365
sI22
g2443
sI23
g2465
sI27
g2561
sI29
g2586
sI34
g2695
sI38
g2757
sI41
g2804
sI43
g2837
sI50
g2951
sI53
g2994
sI64
g3140
sI70
g3194
sI74
(dp3220
sI90
(dp3221
sI93
(dp3222
sI95
(dp3223
ssI73
(dp3224
I64
g3141
sI3
g1914
sI81
(dp3225
sI8
g2045
sI41
g2805
sI10
g2108
sI43
g2838
sI44
g2852
sI13
g2202
sI14
g2233
sI15
g2266
sI92
(dp3226
sI49
g2932
sI67
g3168
sI87
(dp3227
sI56
g3037
sI88
(dp3228
sI90
(dp3229
sI60
g3096
sI74
(dp3230
sI94
(dp3231
ssI74
(dp3232
I1
g1855
sI5
g1962
sI13
g2203
sI18
g2341
sI20
g2393
sI24
g2488
sI28
g2574
sI29
g2587
sI52
g2982
sI53
g3001
sI58
g3067
sI60
g3097
sI61
g3108
sI63
g3127
sI66
g3159
sI69
g3184
sI71
g3207
sI72
g3220
sI73
g3230
sI78
(dp3233
sI80
(dp3234
sI88
(dp3235
sI89
(dp3236
sI91
(dp3237
sI92
(dp3238
sI94
(dp3239
sI99
(dp3240
ssI75
(dp3241
I2
g1882
sI8
g2046
sI9
g2074
sI12
g2171
sI14
g2234
sI17
g2312
sI21
g2421
sI23
g2466
sI24
g2489
sI26
g2531
sI33
g2670
sI34
g2696
sI40
g2789
sI52
g2983
sI53
g2996
sI55
g3022
sI56
g3038
sI61
g3109
sI62
g3117
sI63
g3128
sI64
g3142
sI68
g3175
sI70
g3195
sI71
g3208
sI79
(dp3242
sI80
(dp3243
sI81
(dp3244
sI85
(dp3245
sI89
(dp3246
sI94
(dp3247
sI96
(dp3248
ssI76
(dp3249
I0
g1825
sI2
g1883
sI6
g1994
sI13
g2204
sI16
g2292
sI17
g2313
sI21
g2422
sI30
g2605
sI34
g2697
sI35
g2713
sI37
g2742
sI40
g2790
sI42
g2824
sI51
g2967
sI52
g2984
sI57
g3051
sI61
g3110
sI64
g3143
sI78
(dp3250
sI81
(dp3251
sI84
(dp3252
sI87
(dp3253
sI90
(dp3254
sI91
(dp3255
sI95
(dp3256
sI98
(dp3257
ssI77
(dp3258
I4
g1938
sI5
g1963
sI10
g2109
sI12
g2172
sI14
g2235
sI18
g2342
sI25
g2512
sI27
g2562
sI31
g2627
sI45
g2868
sI46
g2886
sI51
g2968
sI55
g3023
sI56
g3039
sI57
g3052
sI65
g3152
sI68
g3176
sI71
g3209
sI78
(dp3259
sI88
(dp3260
sI90
(dp3261
sI92
(dp3262
sI96
(dp3263
sI98
(dp3264
ssI78
(dp3265
I1
g1856
sI4
g1939
sI6
g1995
sI8
g2047
sI9
g2075
sI17
g2314
sI18
g2343
sI19
g2366
sI25
g2513
sI28
g2575
sI30
g2606
sI32
g2649
sI34
g2698
sI36
g2726
sI38
g2758
sI39
g2773
sI46
g2887
sI49
g2933
sI51
g2969
sI55
g3024
sI68
g3177
sI69
g3185
sI74
g3233
sI76
g3250
sI77
g3259
sI80
(dp3266
sI85
(dp3267
sI90
(dp3268
sI93
(dp3269
sI95
(dp3270
sI98
(dp3271
sI99
(dp3272
ssI79
(dp3273
I5
g1964
sI9
g2076
sI12
g2173
sI13
g2205
sI15
g2267
sI19
g2367
sI25
g2514
sI26
g2528
sI31
g2628
sI32
g2650
sI36
g2727
sI47
g2900
sI50
g2952
sI55
g3025
sI59
g3082
sI71
g3210
sI75
g3242
sI80
(dp3274
sI81
(dp3275
sI87
(dp3276
sI89
(dp3277
sI93
(dp3278
sI94
(dp3279
sI96
(dp3280
ssI80
(dp3281
I3
g1915
sI5
g1965
sI15
g2268
sI19
g2368
sI20
g2394
sI21
g2423
sI22
g2444
sI25
g2515
sI32
g2651
sI44
g2853
sI47
g2901
sI51
g2970
sI53
g2998
sI55
g3026
sI63
g3129
sI66
g3160
sI67
g3169
sI70
g3196
sI74
g3234
sI75
g3243
sI78
g3266
sI79
g3274
sI82
(dp3282
sI83
(dp3283
sI85
(dp3284
sI90
(dp3285
sI92
(dp3286
sI93
(dp3287
sI95
(dp3288
ssI81
(dp3289
I1
g1857
sI8
g2048
sI9
g2077
sI12
g2174
sI14
g2236
sI22
g2445
sI24
g2490
sI26
g2533
sI31
g2629
sI32
g2652
sI33
g2671
sI35
g2714
sI38
g2759
sI39
g2774
sI49
g2934
sI54
g3007
sI55
g3027
sI58
g3068
sI61
g3111
sI69
g3186
sI70
g3197
sI73
g3225
sI75
g3244
sI76
g3251
sI79
g3275
sI87
(dp3290
sI92
(dp3291
sI94
(dp3292
ssI82
(dp3293
I0
g1826
sI2
g1884
sI4
g1940
sI5
g1966
sI8
g2049
sI12
g2175
sI14
g2237
sI15
g2269
sI17
g2315
sI19
g2369
sI20
g2395
sI28
g2576
sI31
g2630
sI32
g2653
sI33
g2672
sI39
g2775
sI41
g2806
sI45
g2869
sI47
g2902
sI52
g2985
sI56
g3040
sI69
g3187
sI71
g3211
sI80
g3282
sI84
(dp3294
sI89
(dp3295
sI90
(dp3296
sI97
(dp3297
sI99
(dp3298
ssI83
(dp3299
I5
g1967
sI7
g2022
sI13
g2206
sI14
g2238
sI16
g2293
sI20
g2396
sI25
g2516
sI27
g2563
sI29
g2588
sI30
g2607
sI33
g2673
sI34
g2699
sI40
g2791
sI42
g2825
sI43
g2839
sI44
g2854
sI45
g2870
sI48
g2919
sI58
g3069
sI62
g3118
sI63
g3130
sI65
g3153
sI66
g3161
sI67
g3170
sI70
g3198
sI80
g3283
sI84
(dp3300
sI91
(dp3301
sI92
(dp3302
sI94
(dp3303
sI95
(dp3304
ssI84
(dp3305
I2
g1885
sI4
g1941
sI13
g2207
sI15
g2270
sI19
g2370
sI22
g2446
sI23
g2467
sI24
g2491
sI25
g2517
sI28
g2577
sI29
g2589
sI33
g2674
sI38
g2760
sI42
g2826
sI44
g2855
sI46
g2888
sI47
g2903
sI50
g2953
sI54
g3008
sI61
g3112
sI63
g3131
sI65
g3154
sI66
g3162
sI76
g3252
sI82
g3294
sI83
g3300
sI89
(dp3306
sI91
(dp3307
sI94
(dp3308
sI95
(dp3309
sI98
(dp3310
sI99
(dp3311
ssI85
(dp3312
I0
g1827
sI3
g1916
sI8
g2050
sI9
g2078
sI11
g2145
sI15
g2271
sI20
g2397
sI24
g2492
sI30
g2608
sI36
g2728
sI40
g2792
sI41
g2807
sI42
g2827
sI49
g2935
sI57
g3053
sI58
g3070
sI60
g3098
sI69
g3188
sI70
g3199
sI75
g3245
sI78
g3267
sI80
g3284
sI89
(dp3313
sI91
(dp3314
sI95
(dp3315
sI97
(dp3316
ssI86
(dp3317
I7
g2023
sI12
g2176
sI13
g2208
sI18
g2344
sI25
g2518
sI30
g2609
sI31
g2631
sI32
g2654
sI33
g2675
sI38
g2761
sI46
g2889
sI47
g2904
sI49
g2936
sI51
g2971
sI54
g3009
sI57
g3054
sI59
g3083
sI64
g3144
sI65
g3155
sI68
g3178
sI71
g3212
sI89
(dp3318
sI91
(dp3319
sI97
(dp3320
sI99
(dp3321
ssI87
(dp3322
I2
g1886
sI3
g1917
sI4
g1942
sI6
g1996
sI9
g2079
sI10
g2110
sI17
g2316
sI18
g2345
sI19
g2371
sI20
g2398
sI25
g2519
sI29
g2590
sI34
g2700
sI35
g2715
sI38
g2762
sI39
g2776
sI42
g2828
sI43
g2840
sI45
g2871
sI48
g2920
sI51
g2972
sI52
g2986
sI55
g3028
sI56
g3041
sI58
g3071
sI59
g3084
sI63
g3132
sI68
g3179
sI73
g3227
sI76
g3253
sI79
g3276
sI81
g3290
sI88
(dp3323
sI91
(dp3324
sI92
(dp3325
sI98
(dp3326
ssI88
(dp3327
I2
g1887
sI4
g1943
sI7
g2024
sI8
g2051
sI9
g2080
sI10
g2111
sI11
g2146
sI22
g2447
sI29
g2591
sI35
g2716
sI42
g2829
sI45
g2872
sI49
g2937
sI51
g2973
sI54
g3010
sI58
g3072
sI63
g3133
sI64
g3145
sI68
g3180
sI71
g3213
sI73
g3228
sI74
g3235
sI77
g3260
sI87
g3323
sI89
(dp3328
sI96
(dp3329
sI97
(dp3330
sI99
(dp3331
ssI89
(dp3332
I0
g1828
sI1
g1858
sI5
g1968
sI6
g1997
sI9
g2081
sI10
g2112
sI15
g2272
sI17
g2317
sI22
g2448
sI24
g2493
sI32
g2655
sI34
g2701
sI36
g2729
sI37
g2743
sI38
g2763
sI39
g2777
sI43
g2841
sI44
g2856
sI45
g2873
sI54
g3011
sI59
g3085
sI63
g3134
sI70
g3200
sI74
g3236
sI75
g3246
sI79
g3277
sI82
g3295
sI84
g3306
sI85
g3313
sI86
g3318
sI88
g3328
sI90
(dp3333
sI91
(dp3334
sI92
(dp3335
sI95
(dp3336
ssI90
(dp3337
I0
g1829
sI3
g1918
sI5
g1969
sI6
g1998
sI9
g2082
sI13
g2209
sI14
g2239
sI16
g2294
sI24
g2494
sI26
g2537
sI29
g2592
sI31
g2632
sI32
g2656
sI33
g2676
sI36
g2730
sI39
g2778
sI41
g2808
sI44
g2857
sI48
g2921
sI50
g2954
sI51
g2974
sI64
g3146
sI65
g3156
sI66
g3163
sI69
g3189
sI71
g3214
sI72
g3221
sI73
g3229
sI76
g3254
sI77
g3261
sI78
g3268
sI80
g3285
sI82
g3296
sI89
g3333
sI91
(dp3338
sI95
(dp3339
sI96
(dp3340
sI98
(dp3341
ssI91
(dp3342
I1
g1859
sI2
g1888
sI6
g1999
sI10
g2113
sI11
g2147
sI17
g2318
sI20
g2399
sI22
g2449
sI26
g2527
sI33
g2677
sI39
g2779
sI44
g2858
sI46
g2890
sI47
g2905
sI48
g2922
sI49
g2938
sI50
g2955
sI55
g3029
sI56
g3042
sI57
g3055
sI58
g3073
sI61
g3113
sI63
g3135
sI69
g3190
sI71
g3215
sI74
g3237
sI76
g3255
sI83
g3301
sI84
g3307
sI85
g3314
sI86
g3319
sI87
g3324
sI89
g3334
sI90
g3338
ssI92
(dp3343
I9
g2083
sI10
g2114
sI14
g2240
sI15
g2273
sI16
g2295
sI17
g2319
sI18
g2346
sI20
g2400
sI25
g2520
sI30
g2610
sI35
g2717
sI40
g2793
sI46
g2891
sI49
g2939
sI50
g2956
sI51
g2975
sI52
g2987
sI53
g2995
sI55
g3030
sI57
g3056
sI58
g3074
sI69
g3191
sI70
g3201
sI73
g3226
sI74
g3238
sI77
g3262
sI80
g3286
sI81
g3291
sI83
g3302
sI87
g3325
sI89
g3335
sI93
(dp3344
sI94
(dp3345
ssI93
(dp3346
I0
g1830
sI2
g1889
sI7
g2025
sI13
g2210
sI14
g2241
sI20
g2401
sI23
g2468
sI25
g2521
sI26
g2539
sI30
g2611
sI32
g2657
sI33
g2678
sI36
g2731
sI43
g2842
sI44
g2859
sI48
g2923
sI49
g2940
sI52
g2988
sI59
g3086
sI72
g3222
sI78
g3269
sI79
g3278
sI80
g3287
sI92
g3344
sI95
(dp3347
sI98
(dp3348
ssI94
(dp3349
I5
g1970
sI10
g2115
sI13
g2211
sI16
g2296
sI25
g2522
sI31
g2633
sI37
g2744
sI41
g2809
sI44
g2860
sI46
g2892
sI48
g2924
sI55
g3031
sI56
g3043
sI57
g3057
sI60
g3099
sI64
g3147
sI70
g3202
sI73
g3231
sI74
g3239
sI75
g3247
sI79
g3279
sI81
g3292
sI83
g3303
sI84
g3308
sI92
g3345
sI96
(dp3350
sI97
(dp3351
ssI95
(dp3352
I7
g2026
sI8
g2052
sI11
g2148
sI18
g2347
sI29
g2593
sI31
g2634
sI41
g2810
sI42
g2830
sI43
g2843
sI46
g2893
sI54
g3012
sI56
g3044
sI58
g3075
sI59
g3087
sI60
g3100
sI62
g3119
sI64
g3148
sI71
g3216
sI72
g3223
sI76
g3256
sI78
g3270
sI80
g3288
sI83
g3304
sI84
g3309
sI85
g3315
sI89
g3336
sI90
g3339
sI93
g3347
sI96
(dp3353
sI97
(dp3354
ssI96
(dp3355
I5
g1971
sI6
g2000
sI7
g2027
sI10
g2116
sI11
g2149
sI12
g2177
sI15
g2274
sI16
g2297
sI17
g2320
sI22
g2450
sI23
g2469
sI24
g2495
sI32
g2658
sI37
g2745
sI38
g2764
sI41
g2811
sI44
g2861
sI45
g2874
sI46
g2894
sI51
g2976
sI53
g2991
sI57
g3058
sI58
g3076
sI59
g3088
sI61
g3114
sI62
g3120
sI63
g3136
sI66
g3164
sI67
g3171
sI68
g3181
sI70
g3203
sI71
g3217
sI75
g3248
sI77
g3263
sI79
g3280
sI88
g3329
sI90
g3340
sI94
g3350
sI95
g3353
sI98
(dp3356
ssI97
(dp3357
I1
g1860
sI2
g1890
sI5
g1972
sI9
g2084
sI10
g2117
sI15
g2275
sI16
g2298
sI21
g2424
sI25
g2523
sI29
g2594
sI31
g2635
sI34
g2702
sI37
g2746
sI39
g2780
sI40
g2794
sI41
g2812
sI42
g2831
sI50
g2957
sI60
g3101
sI65
g3157
sI67
g3172
sI69
g3192
sI70
g3204
sI71
g3218
sI82
g3297
sI85
g3316
sI86
g3320
sI88
g3330
sI94
g3351
sI95
g3354
sI99
(dp3358
ssI98
(dp3359
I1
g1861
sI11
g2150
sI12
g2178
sI16
g2299
sI19
g2372
sI24
g2496
sI32
g2659
sI35
g2718
sI37
g2747
sI39
g2781
sI41
g2813
sI45
g2875
sI49
g2941
sI53
g2997
sI55
g3032
sI58
g3077
sI62
g3121
sI66
g3165
sI76
g3257
sI77
g3264
sI78
g3271
sI84
g3310
sI87
g3326
sI90
g3341
sI93
g3348
sI96
g3356
ssI99
(dp3360
I7
g2028
sI13
g2212
sI14
g2242
sI19
g2373
sI20
g2402
sI25
g2524
sI26
g2535
sI28
g2578
sI35
g2719
sI36
g2732
sI45
g2876
sI48
g2925
sI49
g2942
sI52
g2989
sI56
g3045
sI57
g3059
sI59
g3089
sI62
g3122
sI67
g3173
sI68
g3182
sI70
g3205
sI74
g3240
sI78
g3272
sI82
g3298
sI84
g3311
sI86
g3321
sI88
g3331
sI97
g3358
sssg1697
g1803
sbsI2
g0
(g8
g2
Ntp3361
Rp3362
(dp3363
g12
(dp3364
I0
(dp3365
sI1
(dp3366
sI2
(dp3367
sI3
(dp3368
sI4
(dp3369
sI5
(dp3370
sI6
(dp3371
sI7
(dp3372
sI8
(dp3373
sI9
(dp3374
sI10
(dp3375
sI11
(dp3376
sI12
(dp3377
sI13
(dp3378
sI14
(dp3379
sI15
(dp3380
sI16
(dp3381
sI17
(dp3382
sI18
(dp3383
sI19
(dp3384
sI20
(dp3385
sI21
(dp3386
sI22
(dp3387
sI23
(dp3388
sI24
(dp3389
sI25
(dp3390
sI26
(dp3391
sI27
(dp3392
sI28
(dp3393
sI29
(dp3394
sI30
(dp3395
sI31
(dp3396
sI32
(dp3397
sI33
(dp3398
sI34
(dp3399
sI35
(dp3400
sI36
(dp3401
sI37
(dp3402
sI38
(dp3403
sI39
(dp3404
sI40
(dp3405
sI41
(dp3406
sI42
(dp3407
sI43
(dp3408
sI44
(dp3409
sI45
(dp3410
sI46
(dp3411
sI47
(dp3412
sI48
(dp3413
sI49
(dp3414
sI50
(dp3415
sI51
(dp3416
sI52
(dp3417
sI53
(dp3418
sI54
(dp3419
sI55
(dp3420
sI56
(dp3421
sI57
(dp3422
sI58
(dp3423
sI59
(dp3424
sI60
(dp3425
sI61
(dp3426
sI62
(dp3427
sI63
(dp3428
sI64
(dp3429
sI65
(dp3430
sI66
(dp3431
sI67
(dp3432
sI68
(dp3433
sI69
(dp3434
sI70
(dp3435
sI71
(dp3436
sI72
(dp3437
sI73
(dp3438
sI74
(dp3439
sI75
(dp3440
sI76
(dp3441
sI77
(dp3442
sI78
(dp3443
sI79
(dp3444
sI80
(dp3445
sI81
(dp3446
sI82
(dp3447
sI83
(dp3448
sI84
(dp3449
sI85
(dp3450
sI86
(dp3451
sI87
(dp3452
sI88
(dp3453
sI89
(dp3454
sI90
(dp3455
sI91
(dp3456
sI92
(dp3457
sI93
(dp3458
sI94
(dp3459
sI95
(dp3460
sI96
(dp3461
sI97
(dp3462
sI98
(dp3463
sI99
(dp3464
ssg114
(dp3465
sg116
(dp3466
I0
(dp3467
I1
(dp3468
sI4
(dp3469
sI6
(dp3470
sI14
(dp3471
sI15
(dp3472
sI28
(dp3473
sI29
(dp3474
sI30
(dp3475
sI33
(dp3476
sI35
(dp3477
sI37
(dp3478
sI43
(dp3479
sI46
(dp3480
sI49
(dp3481
sI51
(dp3482
sI54
(dp3483
sI57
(dp3484
sI58
(dp3485
sI60
(dp3486
sI62
(dp3487
sI64
(dp3488
sI66
(dp3489
sI73
(dp3490
sI76
(dp3491
sI77
(dp3492
sI78
(dp3493
sI81
(dp3494
sI82
(dp3495
sI87
(dp3496
sI91
(dp3497
sI92
(dp3498
sI94
(dp3499
sI96
(dp3500
ssI1
(dp3501
I0
g3468
sI6
(dp3502
sI11
(dp3503
sI20
(dp3504
sI32
(dp3505
sI37
(dp3506
sI38
(dp3507
sI39
(dp3508
sI42
(dp3509
sI44
(dp3510
sI47
(dp3511
sI53
(dp3512
sI56
(dp3513
sI58
(dp3514
sI61
(dp3515
sI67
(dp3516
sI68
(dp3517
sI70
(dp3518
sI71
(dp3519
sI74
(dp3520
sI76
(dp3521
sI79
(dp3522
sI80
(dp3523
sI91
(dp3524
sI92
(dp3525
sI93
(dp3526
ssI2
(dp3527
I6
(dp3528
sI8
(dp3529
sI15
(dp3530
sI18
(dp3531
sI21
(dp3532
sI23
(dp3533
sI32
(dp3534
sI33
(dp3535
sI39
(dp3536
sI40
(dp3537
sI52
(dp3538
sI54
(dp3539
sI57
(dp3540
sI59
(dp3541
sI60
(dp3542
sI62
(dp3543
sI63
(dp3544
sI67
(dp3545
sI69
(dp3546
sI70
(dp3547
sI73
(dp3548
sI76
(dp3549
sI80
(dp3550
sI84
(dp3551
ssI3
(dp3552
I4
(dp3553
sI8
(dp3554
sI9
(dp3555
sI10
(dp3556
sI13
(dp3557
sI17
(dp3558
sI19
(dp3559
sI20
(dp3560
sI21
(dp3561
sI26
(dp3562
sI32
(dp3563
sI35
(dp3564
sI37
(dp3565
sI46
(dp3566
sI48
(dp3567
sI52
(dp3568
sI53
(dp3569
sI55
(dp3570
sI59
(dp3571
sI61
(dp3572
sI63
(dp3573
sI65
(dp3574
sI69
(dp3575
sI70
(dp3576
sI76
(dp3577
sI78
(dp3578
sI79
(dp3579
sI85
(dp3580
sI87
(dp3581
sI89
(dp3582
sI94
(dp3583
ssI4
(dp3584
I0
g3469
sI3
g3553
sI5
(dp3585
sI6
(dp3586
sI8
(dp3587
sI9
(dp3588
sI10
(dp3589
sI15
(dp3590
sI25
(dp3591
sI26
(dp3592
sI29
(dp3593
sI34
(dp3594
sI42
(dp3595
sI45
(dp3596
sI47
(dp3597
sI48
(dp3598
sI52
(dp3599
sI55
(dp3600
sI56
(dp3601
sI57
(dp3602
sI58
(dp3603
sI61
(dp3604
sI63
(dp3605
sI65
(dp3606
sI67
(dp3607
sI72
(dp3608
sI79
(dp3609
sI88
(dp3610
sI90
(dp3611
sI93
(dp3612
sI94
(dp3613
sI99
(dp3614
ssI5
(dp3615
I4
g3585
sI7
(dp3616
sI13
(dp3617
sI15
(dp3618
sI19
(dp3619
sI20
(dp3620
sI21
(dp3621
sI28
(dp3622
sI29
(dp3623
sI33
(dp3624
sI41
(dp3625
sI43
(dp3626
sI45
(dp3627
sI46
(dp3628
sI54
(dp3629
sI55
(dp3630
sI59
(dp3631
sI61
(dp3632
sI62
(dp3633
sI65
(dp3634
sI67
(dp3635
sI71
(dp3636
sI78
(dp3637
sI85
(dp3638
sI86
(dp3639
ssI6
(dp3640
I0
g3470
sI1
g3502
sI2
g3528
sI4
g3586
sI7
(dp3641
sI16
(dp3642
sI17
(dp3643
sI18
(dp3644
sI20
(dp3645
sI23
(dp3646
sI24
(dp3647
sI26
(dp3648
sI32
(dp3649
sI33
(dp3650
sI36
(dp3651
sI48
(dp3652
sI49
(dp3653
sI52
(dp3654
sI55
(dp3655
sI61
(dp3656
sI63
(dp3657
sI66
(dp3658
sI72
(dp3659
sI74
(dp3660
sI76
(dp3661
sI81
(dp3662
sI86
(dp3663
sI92
(dp3664
sI95
(dp3665
ssI7
(dp3666
I5
g3616
sI6
g3641
sI8
(dp3667
sI10
(dp3668
sI16
(dp3669
sI27
(dp3670
sI31
(dp3671
sI33
(dp3672
sI34
(dp3673
sI35
(dp3674
sI36
(dp3675
sI38
(dp3676
sI42
(dp3677
sI43
(dp3678
sI46
(dp3679
sI49
(dp3680
sI50
(dp3681
sI57
(dp3682
sI67
(dp3683
sI74
(dp3684
sI75
(dp3685
sI90
(dp3686
sI92
(dp3687
sI93
(dp3688
ssI8
(dp3689
I2
g3529
sI3
g3554
sI4
g3587
sI7
g3667
sI11
(dp3690
sI12
(dp3691
sI14
(dp3692
sI15
(dp3693
sI17
(dp3694
sI18
(dp3695
sI22
(dp3696
sI27
(dp3697
sI30
(dp3698
sI31
(dp3699
sI32
(dp3700
sI33
(dp3701
sI40
(dp3702
sI49
(dp3703
sI54
(dp3704
sI55
(dp3705
sI56
(dp3706
sI57
(dp3707
sI59
(dp3708
sI65
(dp3709
sI68
(dp3710
sI74
(dp3711
sI76
(dp3712
sI77
(dp3713
sI79
(dp3714
sI80
(dp3715
sI81
(dp3716
sI85
(dp3717
sI90
(dp3718
sI92
(dp3719
sI93
(dp3720
sI94
(dp3721
sI95
(dp3722
sI96
(dp3723
ssI9
(dp3724
I3
g3555
sI4
g3588
sI11
(dp3725
sI12
(dp3726
sI15
(dp3727
sI16
(dp3728
sI19
(dp3729
sI20
(dp3730
sI23
(dp3731
sI32
(dp3732
sI44
(dp3733
sI45
(dp3734
sI46
(dp3735
sI51
(dp3736
sI55
(dp3737
sI57
(dp3738
sI62
(dp3739
sI64
(dp3740
sI67
(dp3741
sI71
(dp3742
sI74
(dp3743
sI76
(dp3744
sI77
(dp3745
sI78
(dp3746
sI79
(dp3747
sI84
(dp3748
sI91
(dp3749
sI92
(dp3750
sI95
(dp3751
sI99
(dp3752
ssI10
(dp3753
I3
g3556
sI4
g3589
sI7
g3668
sI12
(dp3754
sI13
(dp3755
sI15
(dp3756
sI26
(dp3757
sI33
(dp3758
sI36
(dp3759
sI37
(dp3760
sI49
(dp3761
sI52
(dp3762
sI53
(dp3763
sI55
(dp3764
sI57
(dp3765
sI62
(dp3766
sI68
(dp3767
sI73
(dp3768
sI74
(dp3769
sI76
(dp3770
sI77
(dp3771
sI82
(dp3772
sI86
(dp3773
sI87
(dp3774
sI99
(dp3775
ssI11
(dp3776
I1
g3503
sI8
g3690
sI9
g3725
sI16
(dp3777
sI18
(dp3778
sI22
(dp3779
sI23
(dp3780
sI30
(dp3781
sI35
(dp3782
sI37
(dp3783
sI39
(dp3784
sI40
(dp3785
sI41
(dp3786
sI45
(dp3787
sI46
(dp3788
sI48
(dp3789
sI49
(dp3790
sI51
(dp3791
sI57
(dp3792
sI63
(dp3793
sI67
(dp3794
sI69
(dp3795
sI71
(dp3796
sI73
(dp3797
sI74
(dp3798
sI85
(dp3799
sI86
(dp3800
sI87
(dp3801
sI88
(dp3802
sI93
(dp3803
sI98
(dp3804
ssI12
(dp3805
I8
g3691
sI9
g3726
sI10
g3754
sI16
(dp3806
sI24
(dp3807
sI27
(dp3808
sI32
(dp3809
sI38
(dp3810
sI43
(dp3811
sI47
(dp3812
sI50
(dp3813
sI55
(dp3814
sI57
(dp3815
sI58
(dp3816
sI63
(dp3817
sI64
(dp3818
sI65
(dp3819
sI67
(dp3820
sI70
(dp3821
sI75
(dp3822
sI84
(dp3823
sI86
(dp3824
sI90
(dp3825
sI91
(dp3826
sI92
(dp3827
sI95
(dp3828
sI99
(dp3829
ssI13
(dp3830
I3
g3557
sI5
g3617
sI10
g3755
sI16
(dp3831
sI18
(dp3832
sI21
(dp3833
sI23
(dp3834
sI29
(dp3835
sI30
(dp3836
sI32
(dp3837
sI39
(dp3838
sI42
(dp3839
sI45
(dp3840
sI47
(dp3841
sI54
(dp3842
sI58
(dp3843
sI60
(dp3844
sI61
(dp3845
sI62
(dp3846
sI63
(dp3847
sI69
(dp3848
sI77
(dp3849
sI79
(dp3850
sI89
(dp3851
sI92
(dp3852
sI93
(dp3853
sI97
(dp3854
sI98
(dp3855
sI99
(dp3856
ssI14
(dp3857
I0
g3471
sI8
g3692
sI15
(dp3858
sI16
(dp3859
sI22
(dp3860
sI23
(dp3861
sI25
(dp3862
sI26
(dp3863
sI31
(dp3864
sI32
(dp3865
sI37
(dp3866
sI38
(dp3867
sI42
(dp3868
sI44
(dp3869
sI49
(dp3870
sI58
(dp3871
sI60
(dp3872
sI62
(dp3873
sI67
(dp3874
sI69
(dp3875
sI73
(dp3876
sI74
(dp3877
sI76
(dp3878
sI77
(dp3879
sI83
(dp3880
sI86
(dp3881
sI89
(dp3882
sI98
(dp3883
sI99
(dp3884
ssI15
(dp3885
I0
g3472
sI2
g3530
sI4
g3590
sI5
g3618
sI8
g3693
sI9
g3727
sI10
g3756
sI14
g3858
sI16
(dp3886
sI20
(dp3887
sI24
(dp3888
sI26
(dp3889
sI28
(dp3890
sI35
(dp3891
sI38
(dp3892
sI44
(dp3893
sI47
(dp3894
sI52
(dp3895
sI53
(dp3896
sI54
(dp3897
sI55
(dp3898
sI58
(dp3899
sI62
(dp3900
sI63
(dp3901
sI64
(dp3902
sI73
(dp3903
sI75
(dp3904
sI77
(dp3905
sI85
(dp3906
sI87
(dp3907
sI89
(dp3908
sI91
(dp3909
sI93
(dp3910
sI94
(dp3911
sI98
(dp3912
ssI16
(dp3913
I6
g3642
sI7
g3669
sI9
g3728
sI11
g3777
sI12
g3806
sI13
g3831
sI14
g3859
sI15
g3886
sI25
(dp3914
sI26
(dp3915
sI27
(dp3916
sI30
(dp3917
sI33
(dp3918
sI34
(dp3919
sI35
(dp3920
sI36
(dp3921
sI45
(dp3922
sI46
(dp3923
sI47
(dp3924
sI51
(dp3925
sI53
(dp3926
sI55
(dp3927
sI58
(dp3928
sI61
(dp3929
sI64
(dp3930
sI66
(dp3931
sI68
(dp3932
sI70
(dp3933
sI73
(dp3934
sI74
(dp3935
sI78
(dp3936
sI79
(dp3937
sI80
(dp3938
sI84
(dp3939
sI92
(dp3940
sI93
(dp3941
sI94
(dp3942
sI97
(dp3943
ssI17
(dp3944
I3
g3558
sI6
g3643
sI8
g3694
sI20
(dp3945
sI23
(dp3946
sI28
(dp3947
sI32
(dp3948
sI33
(dp3949
sI37
(dp3950
sI39
(dp3951
sI40
(dp3952
sI42
(dp3953
sI45
(dp3954
sI47
(dp3955
sI51
(dp3956
sI55
(dp3957
sI57
(dp3958
sI64
(dp3959
sI69
(dp3960
sI74
(dp3961
sI75
(dp3962
sI76
(dp3963
sI79
(dp3964
sI84
(dp3965
sI96
(dp3966
sI99
(dp3967
ssI18
(dp3968
I2
g3531
sI6
g3644
sI8
g3695
sI11
g3778
sI13
g3832
sI27
(dp3969
sI28
(dp3970
sI31
(dp3971
sI34
(dp3972
sI35
(dp3973
sI36
(dp3974
sI37
(dp3975
sI43
(dp3976
sI44
(dp3977
sI45
(dp3978
sI46
(dp3979
sI49
(dp3980
sI54
(dp3981
sI57
(dp3982
sI59
(dp3983
sI61
(dp3984
sI68
(dp3985
sI75
(dp3986
sI79
(dp3987
sI82
(dp3988
sI85
(dp3989
sI88
(dp3990
sI94
(dp3991
sI99
(dp3992
ssI19
(dp3993
I3
g3559
sI5
g3619
sI9
g3729
sI22
(dp3994
sI24
(dp3995
sI25
(dp3996
sI26
(dp3997
sI27
(dp3998
sI29
(dp3999
sI32
(dp4000
sI37
(dp4001
sI43
(dp4002
sI48
(dp4003
sI49
(dp4004
sI51
(dp4005
sI53
(dp4006
sI54
(dp4007
sI56
(dp4008
sI60
(dp4009
sI61
(dp4010
sI64
(dp4011
sI68
(dp4012
sI71
(dp4013
sI73
(dp4014
sI78
(dp4015
sI83
(dp4016
sI84
(dp4017
sI85
(dp4018
sI86
(dp4019
sI88
(dp4020
sI94
(dp4021
sI96
(dp4022
sI98
(dp4023
sI99
(dp4024
ssI20
(dp4025
I1
g3504
sI3
g3560
sI5
g3620
sI6
g3645
sI9
g3730
sI15
g3887
sI17
g3945
sI21
(dp4026
sI30
(dp4027
sI37
(dp4028
sI40
(dp4029
sI41
(dp4030
sI42
(dp4031
sI43
(dp4032
sI45
(dp4033
sI51
(dp4034
sI53
(dp4035
sI55
(dp4036
sI57
(dp4037
sI58
(dp4038
sI59
(dp4039
sI62
(dp4040
sI64
(dp4041
sI65
(dp4042
sI67
(dp4043
sI73
(dp4044
sI74
(dp4045
sI78
(dp4046
sI85
(dp4047
sI89
(dp4048
sI91
(dp4049
sI94
(dp4050
sI99
(dp4051
ssI21
(dp4052
I2
g3532
sI3
g3561
sI5
g3621
sI13
g3833
sI20
g4026
sI23
(dp4053
sI25
(dp4054
sI28
(dp4055
sI29
(dp4056
sI37
(dp4057
sI40
(dp4058
sI42
(dp4059
sI50
(dp4060
sI52
(dp4061
sI56
(dp4062
sI58
(dp4063
sI66
(dp4064
sI69
(dp4065
sI78
(dp4066
sI79
(dp4067
sI80
(dp4068
sI82
(dp4069
sI84
(dp4070
sI87
(dp4071
sI88
(dp4072
sI92
(dp4073
sI93
(dp4074
sI94
(dp4075
sI96
(dp4076
ssI22
(dp4077
I8
g3696
sI11
g3779
sI14
g3860
sI19
g3994
sI25
(dp4078
sI30
(dp4079
sI33
(dp4080
sI35
(dp4081
sI38
(dp4082
sI43
(dp4083
sI47
(dp4084
sI48
(dp4085
sI49
(dp4086
sI50
(dp4087
sI51
(dp4088
sI52
(dp4089
sI53
(dp4090
sI54
(dp4091
sI55
(dp4092
sI57
(dp4093
sI58
(dp4094
sI61
(dp4095
sI64
(dp4096
sI65
(dp4097
sI67
(dp4098
sI68
(dp4099
sI79
(dp4100
sI84
(dp4101
sI91
(dp4102
sI99
(dp4103
ssI23
(dp4104
I2
g3533
sI6
g3646
sI9
g3731
sI11
g3780
sI13
g3834
sI14
g3861
sI17
g3946
sI21
g4053
sI31
(dp4105
sI32
(dp4106
sI37
(dp4107
sI39
(dp4108
sI40
(dp4109
sI41
(dp4110
sI49
(dp4111
sI50
(dp4112
sI52
(dp4113
sI53
(dp4114
sI57
(dp4115
sI70
(dp4116
sI79
(dp4117
sI84
(dp4118
sI89
(dp4119
sI90
(dp4120
sI92
(dp4121
sI95
(dp4122
sI96
(dp4123
sI97
(dp4124
ssI24
(dp4125
I96
(dp4126
sI75
(dp4127
sI6
g3647
sI39
(dp4128
sI72
(dp4129
sI41
(dp4130
sI42
(dp4131
sI71
(dp4132
sI12
g3807
sI77
(dp4133
sI15
g3888
sI76
(dp4134
sI81
(dp4135
sI91
(dp4136
sI19
g3995
sI99
(dp4137
sI55
(dp4138
sI56
(dp4139
sI59
(dp4140
sI74
(dp4141
sI62
(dp4142
ssI25
(dp4143
I4
g3591
sI14
g3862
sI16
g3914
sI19
g3996
sI21
g4054
sI22
g4078
sI26
(dp4144
sI34
(dp4145
sI35
(dp4146
sI39
(dp4147
sI43
(dp4148
sI47
(dp4149
sI51
(dp4150
sI55
(dp4151
sI57
(dp4152
sI62
(dp4153
sI63
(dp4154
sI66
(dp4155
sI67
(dp4156
sI68
(dp4157
sI69
(dp4158
sI83
(dp4159
sI89
(dp4160
sI90
(dp4161
sI91
(dp4162
sI92
(dp4163
sI93
(dp4164
sI99
(dp4165
ssI26
(dp4166
I3
g3562
sI4
g3592
sI6
g3648
sI10
g3757
sI14
g3863
sI15
g3889
sI16
g3915
sI19
g3997
sI25
g4144
sI28
(dp4167
sI33
(dp4168
sI40
(dp4169
sI47
(dp4170
sI49
(dp4171
sI50
(dp4172
sI52
(dp4173
sI53
(dp4174
sI55
(dp4175
sI57
(dp4176
sI61
(dp4177
sI62
(dp4178
sI63
(dp4179
sI68
(dp4180
sI74
(dp4181
sI77
(dp4182
sI78
(dp4183
sI79
(dp4184
sI80
(dp4185
sI81
(dp4186
sI83
(dp4187
sI99
(dp4188
ssI27
(dp4189
I7
g3670
sI8
g3697
sI12
g3808
sI16
g3916
sI18
g3969
sI19
g3998
sI29
(dp4190
sI33
(dp4191
sI35
(dp4192
sI39
(dp4193
sI42
(dp4194
sI47
(dp4195
sI50
(dp4196
sI53
(dp4197
sI66
(dp4198
sI70
(dp4199
sI77
(dp4200
sI79
(dp4201
sI80
(dp4202
sI81
(dp4203
sI83
(dp4204
sI84
(dp4205
sI88
(dp4206
sI91
(dp4207
sI94
(dp4208
sI95
(dp4209
sI98
(dp4210
ssI28
(dp4211
I0
g3473
sI5
g3622
sI15
g3890
sI17
g3947
sI18
g3970
sI21
g4055
sI26
g4167
sI35
(dp4212
sI36
(dp4213
sI51
(dp4214
sI52
(dp4215
sI55
(dp4216
sI59
(dp4217
sI62
(dp4218
sI65
(dp4219
sI66
(dp4220
sI71
(dp4221
sI76
(dp4222
sI79
(dp4223
sI80
(dp4224
sI92
(dp4225
sI93
(dp4226
sI94
(dp4227
sI95
(dp4228
sI97
(dp4229
ssI29
(dp4230
I0
g3474
sI4
g3593
sI5
g3623
sI13
g3835
sI19
g3999
sI21
g4056
sI27
g4190
sI32
(dp4231
sI36
(dp4232
sI38
(dp4233
sI39
(dp4234
sI49
(dp4235
sI50
(dp4236
sI56
(dp4237
sI61
(dp4238
sI64
(dp4239
sI65
(dp4240
sI67
(dp4241
sI69
(dp4242
sI72
(dp4243
sI79
(dp4244
sI81
(dp4245
sI84
(dp4246
sI86
(dp4247
sI87
(dp4248
sI90
(dp4249
sI93
(dp4250
sI94
(dp4251
ssI30
(dp4252
I0
g3475
sI8
g3698
sI11
g3781
sI13
g3836
sI16
g3917
sI20
g4027
sI22
g4079
sI31
(dp4253
sI32
(dp4254
sI36
(dp4255
sI43
(dp4256
sI48
(dp4257
sI49
(dp4258
sI54
(dp4259
sI57
(dp4260
sI63
(dp4261
sI72
(dp4262
sI73
(dp4263
sI76
(dp4264
sI77
(dp4265
sI79
(dp4266
sI80
(dp4267
sI82
(dp4268
sI86
(dp4269
sI89
(dp4270
sI94
(dp4271
sI96
(dp4272
ssI31
(dp4273
I7
g3671
sI8
g3699
sI14
g3864
sI18
g3971
sI23
g4105
sI30
g4253
sI37
(dp4274
sI41
(dp4275
sI42
(dp4276
sI44
(dp4277
sI47
(dp4278
sI51
(dp4279
sI57
(dp4280
sI60
(dp4281
sI64
(dp4282
sI76
(dp4283
sI80
(dp4284
sI82
(dp4285
sI84
(dp4286
sI86
(dp4287
sI88
(dp4288
sI91
(dp4289
ssI32
(dp4290
I1
g3505
sI2
g3534
sI3
g3563
sI6
g3649
sI8
g3700
sI9
g3732
sI12
g3809
sI13
g3837
sI14
g3865
sI17
g3948
sI19
g4000
sI23
g4106
sI29
g4231
sI30
g4254
sI35
(dp4291
sI42
(dp4292
sI43
(dp4293
sI45
(dp4294
sI52
(dp4295
sI54
(dp4296
sI56
(dp4297
sI61
(dp4298
sI63
(dp4299
sI71
(dp4300
sI73
(dp4301
sI77
(dp4302
sI84
(dp4303
sI85
(dp4304
sI90
(dp4305
sI97
(dp4306
ssI33
(dp4307
I0
g3476
sI2
g3535
sI5
g3624
sI6
g3650
sI7
g3672
sI8
g3701
sI10
g3758
sI16
g3918
sI17
g3949
sI22
g4080
sI26
g4168
sI27
g4191
sI34
(dp4308
sI37
(dp4309
sI38
(dp4310
sI39
(dp4311
sI41
(dp4312
sI42
(dp4313
sI45
(dp4314
sI52
(dp4315
sI53
(dp4316
sI59
(dp4317
sI61
(dp4318
sI65
(dp4319
sI74
(dp4320
sI75
(dp4321
sI77
(dp4322
sI78
(dp4323
sI79
(dp4324
sI80
(dp4325
sI87
(dp4326
sI89
(dp4327
sI90
(dp4328
sI91
(dp4329
sI92
(dp4330
sI93
(dp4331
sI94
(dp4332
ssI34
(dp4333
I4
g3594
sI7
g3673
sI16
g3919
sI18
g3972
sI25
g4145
sI33
g4308
sI37
(dp4334
sI38
(dp4335
sI41
(dp4336
sI44
(dp4337
sI45
(dp4338
sI48
(dp4339
sI51
(dp4340
sI55
(dp4341
sI58
(dp4342
sI59
(dp4343
sI61
(dp4344
sI63
(dp4345
sI64
(dp4346
sI65
(dp4347
sI67
(dp4348
sI69
(dp4349
sI72
(dp4350
sI74
(dp4351
sI76
(dp4352
sI79
(dp4353
sI88
(dp4354
sI89
(dp4355
sI93
(dp4356
sI98
(dp4357
sI99
(dp4358
ssI35
(dp4359
I0
g3477
sI3
g3564
sI7
g3674
sI11
g3782
sI15
g3891
sI16
g3920
sI18
g3973
sI22
g4081
sI25
g4146
sI27
g4192
sI28
g4212
sI32
g4291
sI36
(dp4360
sI37
(dp4361
sI39
(dp4362
sI41
(dp4363
sI45
(dp4364
sI51
(dp4365
sI53
(dp4366
sI55
(dp4367
sI60
(dp4368
sI63
(dp4369
sI64
(dp4370
sI66
(dp4371
sI69
(dp4372
sI73
(dp4373
sI75
(dp4374
sI78
(dp4375
sI79
(dp4376
sI83
(dp4377
sI84
(dp4378
sI90
(dp4379
sI94
(dp4380
sI98
(dp4381
ssI36
(dp4382
I6
g3651
sI7
g3675
sI10
g3759
sI16
g3921
sI18
g3974
sI28
g4213
sI29
g4232
sI30
g4255
sI35
g4360
sI37
(dp4383
sI42
(dp4384
sI53
(dp4385
sI55
(dp4386
sI56
(dp4387
sI58
(dp4388
sI62
(dp4389
sI63
(dp4390
sI66
(dp4391
sI69
(dp4392
sI70
(dp4393
sI72
(dp4394
sI76
(dp4395
sI77
(dp4396
sI80
(dp4397
sI83
(dp4398
sI84
(dp4399
sI85
(dp4400
sI86
(dp4401
sI91
(dp4402
sI96
(dp4403
sI98
(dp4404
ssI37
(dp4405
I0
g3478
sI1
g3506
sI3
g3565
sI10
g3760
sI11
g3783
sI14
g3866
sI17
g3950
sI18
g3975
sI19
g4001
sI20
g4028
sI21
g4057
sI23
g4107
sI31
g4274
sI33
g4309
sI34
g4334
sI35
g4361
sI36
g4383
sI40
(dp4406
sI42
(dp4407
sI48
(dp4408
sI50
(dp4409
sI51
(dp4410
sI56
(dp4411
sI59
(dp4412
sI64
(dp4413
sI68
(dp4414
sI71
(dp4415
sI75
(dp4416
sI79
(dp4417
sI81
(dp4418
sI84
(dp4419
sI85
(dp4420
sI86
(dp4421
sI92
(dp4422
sI96
(dp4423
sI98
(dp4424
ssI38
(dp4425
I1
g3507
sI7
g3676
sI12
g3810
sI14
g3867
sI15
g3892
sI22
g4082
sI29
g4233
sI33
g4310
sI34
g4335
sI41
(dp4426
sI42
(dp4427
sI52
(dp4428
sI53
(dp4429
sI54
(dp4430
sI56
(dp4431
sI57
(dp4432
sI59
(dp4433
sI61
(dp4434
sI67
(dp4435
sI68
(dp4436
sI73
(dp4437
sI75
(dp4438
sI76
(dp4439
sI78
(dp4440
sI79
(dp4441
sI80
(dp4442
sI86
(dp4443
sI91
(dp4444
sI96
(dp4445
ssI39
(dp4446
I1
g3508
sI2
g3536
sI11
g3784
sI13
g3838
sI17
g3951
sI23
g4108
sI24
g4128
sI25
g4147
sI27
g4193
sI29
g4234
sI33
g4311
sI35
g4362
sI41
(dp4447
sI43
(dp4448
sI45
(dp4449
sI47
(dp4450
sI49
(dp4451
sI60
(dp4452
sI64
(dp4453
sI65
(dp4454
sI66
(dp4455
sI67
(dp4456
sI71
(dp4457
sI75
(dp4458
sI76
(dp4459
sI81
(dp4460
sI83
(dp4461
sI85
(dp4462
sI89
(dp4463
sI91
(dp4464
sI94
(dp4465
sI96
(dp4466
sI97
(dp4467
sI99
(dp4468
ssI40
(dp4469
I2
g3537
sI8
g3702
sI11
g3785
sI17
g3952
sI20
g4029
sI21
g4058
sI23
g4109
sI26
g4169
sI37
g4406
sI42
(dp4470
sI43
(dp4471
sI48
(dp4472
sI49
(dp4473
sI53
(dp4474
sI56
(dp4475
sI62
(dp4476
sI72
(dp4477
sI73
(dp4478
sI77
(dp4479
sI79
(dp4480
sI83
(dp4481
sI96
(dp4482
ssI41
(dp4483
I5
g3625
sI11
g3786
sI20
g4030
sI23
g4110
sI24
g4130
sI31
g4275
sI33
g4312
sI34
g4336
sI35
g4363
sI38
g4426
sI39
g4447
sI45
(dp4484
sI50
(dp4485
sI54
(dp4486
sI56
(dp4487
sI58
(dp4488
sI59
(dp4489
sI60
(dp4490
sI62
(dp4491
sI63
(dp4492
sI64
(dp4493
sI67
(dp4494
sI68
(dp4495
sI69
(dp4496
sI71
(dp4497
sI74
(dp4498
sI76
(dp4499
sI80
(dp4500
sI81
(dp4501
sI92
(dp4502
sI97
(dp4503
sI98
(dp4504
sI99
(dp4505
ssI42
(dp4506
I1
g3509
sI4
g3595
sI7
g3677
sI13
g3839
sI14
g3868
sI17
g3953
sI20
g4031
sI21
g4059
sI24
g4131
sI27
g4194
sI31
g4276
sI32
g4292
sI33
g4313
sI36
g4384
sI37
g4407
sI38
g4427
sI40
g4470
sI56
(dp4507
sI60
(dp4508
sI63
(dp4509
sI68
(dp4510
sI76
(dp4511
sI84
(dp4512
sI86
(dp4513
sI90
(dp4514
sI92
(dp4515
sI97
(dp4516
ssI43
(dp4517
I0
g3479
sI5
g3626
sI7
g3678
sI12
g3811
sI18
g3976
sI19
g4002
sI20
g4032
sI22
g4083
sI25
g4148
sI30
g4256
sI32
g4293
sI39
g4448
sI40
g4471
sI44
(dp4518
sI54
(dp4519
sI56
(dp4520
sI61
(dp4521
sI69
(dp4522
sI74
(dp4523
sI87
(dp4524
sI91
(dp4525
sI95
(dp4526
ssI44
(dp4527
I1
g3510
sI9
g3733
sI14
g3869
sI15
g3893
sI18
g3977
sI31
g4277
sI34
g4337
sI43
g4518
sI48
(dp4528
sI51
(dp4529
sI59
(dp4530
sI60
(dp4531
sI61
(dp4532
sI62
(dp4533
sI68
(dp4534
sI72
(dp4535
sI78
(dp4536
sI79
(dp4537
sI82
(dp4538
sI88
(dp4539
sI91
(dp4540
sI93
(dp4541
sI94
(dp4542
sI95
(dp4543
ssI45
(dp4544
I4
g3596
sI5
g3627
sI9
g3734
sI11
g3787
sI13
g3840
sI16
g3922
sI17
g3954
sI18
g3978
sI20
g4033
sI32
g4294
sI33
g4314
sI34
g4338
sI35
g4364
sI39
g4449
sI41
g4484
sI46
(dp4545
sI47
(dp4546
sI48
(dp4547
sI52
(dp4548
sI53
(dp4549
sI57
(dp4550
sI58
(dp4551
sI59
(dp4552
sI66
(dp4553
sI67
(dp4554
sI68
(dp4555
sI70
(dp4556
sI76
(dp4557
sI81
(dp4558
sI87
(dp4559
ssI46
(dp4560
I0
g3480
sI3
g3566
sI5
g3628
sI7
g3679
sI9
g3735
sI11
g3788
sI16
g3923
sI18
g3979
sI45
g4545
sI47
(dp4561
sI49
(dp4562
sI50
(dp4563
sI51
(dp4564
sI52
(dp4565
sI55
(dp4566
sI56
(dp4567
sI62
(dp4568
sI77
(dp4569
sI83
(dp4570
sI86
(dp4571
sI93
(dp4572
sI98
(dp4573
ssI47
(dp4574
I1
g3511
sI4
g3597
sI12
g3812
sI13
g3841
sI15
g3894
sI16
g3924
sI17
g3955
sI22
g4084
sI25
g4149
sI26
g4170
sI27
g4195
sI31
g4278
sI39
g4450
sI45
g4546
sI46
g4561
sI51
(dp4575
sI59
(dp4576
sI60
(dp4577
sI61
(dp4578
sI68
(dp4579
sI72
(dp4580
sI78
(dp4581
sI80
(dp4582
sI81
(dp4583
sI82
(dp4584
sI86
(dp4585
sI91
(dp4586
sI98
(dp4587
ssI48
(dp4588
I3
g3567
sI4
g3598
sI6
g3652
sI11
g3789
sI19
g4003
sI22
g4085
sI30
g4257
sI34
g4339
sI37
g4408
sI40
g4472
sI44
g4528
sI45
g4547
sI52
(dp4589
sI53
(dp4590
sI54
(dp4591
sI55
(dp4592
sI57
(dp4593
sI58
(dp4594
sI64
(dp4595
sI65
(dp4596
sI74
(dp4597
sI80
(dp4598
sI81
(dp4599
sI85
(dp4600
sI87
(dp4601
sI88
(dp4602
sI95
(dp4603
sI97
(dp4604
sI98
(dp4605
ssI49
(dp4606
I0
g3481
sI6
g3653
sI7
g3680
sI8
g3703
sI10
g3761
sI11
g3790
sI14
g3870
sI18
g3980
sI19
g4004
sI22
g4086
sI23
g4111
sI26
g4171
sI29
g4235
sI30
g4258
sI39
g4451
sI40
g4473
sI46
g4562
sI51
(dp4607
sI52
(dp4608
sI53
(dp4609
sI54
(dp4610
sI56
(dp4611
sI57
(dp4612
sI63
(dp4613
sI64
(dp4614
sI69
(dp4615
sI70
(dp4616
sI71
(dp4617
sI73
(dp4618
sI75
(dp4619
sI78
(dp4620
sI79
(dp4621
sI81
(dp4622
sI82
(dp4623
sI85
(dp4624
sI88
(dp4625
sI92
(dp4626
sI93
(dp4627
sI94
(dp4628
sI95
(dp4629
sI96
(dp4630
ssI50
(dp4631
I7
g3681
sI12
g3813
sI21
g4060
sI22
g4087
sI23
g4112
sI26
g4172
sI27
g4196
sI29
g4236
sI37
g4409
sI41
g4485
sI46
g4563
sI51
(dp4632
sI55
(dp4633
sI63
(dp4634
sI68
(dp4635
sI69
(dp4636
sI74
(dp4637
sI76
(dp4638
sI78
(dp4639
sI81
(dp4640
sI85
(dp4641
sI91
(dp4642
sI94
(dp4643
sI95
(dp4644
sI98
(dp4645
ssI51
(dp4646
I0
g3482
sI9
g3736
sI11
g3791
sI16
g3925
sI17
g3956
sI19
g4005
sI20
g4034
sI22
g4088
sI25
g4150
sI28
g4214
sI31
g4279
sI34
g4340
sI35
g4365
sI37
g4410
sI44
g4529
sI46
g4564
sI47
g4575
sI49
g4607
sI50
g4632
sI53
(dp4647
sI56
(dp4648
sI60
(dp4649
sI63
(dp4650
sI64
(dp4651
sI67
(dp4652
sI71
(dp4653
sI75
(dp4654
sI76
(dp4655
sI79
(dp4656
sI81
(dp4657
sI86
(dp4658
sI89
(dp4659
sI91
(dp4660
sI94
(dp4661
sI95
(dp4662
sI99
(dp4663
ssI52
(dp4664
I2
g3538
sI3
g3568
sI4
g3599
sI6
g3654
sI10
g3762
sI15
g3895
sI21
g4061
sI22
g4089
sI23
g4113
sI26
g4173
sI28
g4215
sI32
g4295
sI33
g4315
sI38
g4428
sI45
g4548
sI46
g4565
sI48
g4589
sI49
g4608
sI55
(dp4665
sI57
(dp4666
sI58
(dp4667
sI59
(dp4668
sI61
(dp4669
sI63
(dp4670
sI64
(dp4671
sI67
(dp4672
sI71
(dp4673
sI72
(dp4674
sI75
(dp4675
sI80
(dp4676
sI81
(dp4677
sI82
(dp4678
sI88
(dp4679
sI89
(dp4680
sI94
(dp4681
sI96
(dp4682
sI97
(dp4683
sI98
(dp4684
ssI53
(dp4685
I1
g3512
sI3
g3569
sI10
g3763
sI15
g3896
sI16
g3926
sI19
g4006
sI20
g4035
sI22
g4090
sI23
g4114
sI26
g4174
sI27
g4197
sI33
g4316
sI35
g4366
sI36
g4385
sI38
g4429
sI40
g4474
sI45
g4549
sI48
g4590
sI49
g4609
sI51
g4647
sI54
(dp4686
sI57
(dp4687
sI64
(dp4688
sI66
(dp4689
sI67
(dp4690
sI69
(dp4691
sI73
(dp4692
sI77
(dp4693
sI80
(dp4694
sI83
(dp4695
sI85
(dp4696
sI88
(dp4697
sI89
(dp4698
sI90
(dp4699
sI93
(dp4700
sI97
(dp4701
ssI54
(dp4702
I0
g3483
sI2
g3539
sI5
g3629
sI8
g3704
sI13
g3842
sI15
g3897
sI18
g3981
sI19
g4007
sI22
g4091
sI30
g4259
sI32
g4296
sI38
g4430
sI41
g4486
sI43
g4519
sI48
g4591
sI49
g4610
sI53
g4686
sI55
(dp4703
sI56
(dp4704
sI57
(dp4705
sI58
(dp4706
sI59
(dp4707
sI64
(dp4708
sI71
(dp4709
sI73
(dp4710
sI81
(dp4711
sI84
(dp4712
sI86
(dp4713
sI88
(dp4714
sI94
(dp4715
sI98
(dp4716
ssI55
(dp4717
I3
g3570
sI4
g3600
sI5
g3630
sI6
g3655
sI8
g3705
sI9
g3737
sI10
g3764
sI12
g3814
sI15
g3898
sI16
g3927
sI17
g3957
sI20
g4036
sI22
g4092
sI24
g4138
sI25
g4151
sI26
g4175
sI28
g4216
sI34
g4341
sI35
g4367
sI36
g4386
sI46
g4566
sI48
g4592
sI50
g4633
sI52
g4665
sI54
g4703
sI62
(dp4718
sI63
(dp4719
sI68
(dp4720
sI71
(dp4721
sI72
(dp4722
sI74
(dp4723
sI76
(dp4724
sI78
(dp4725
sI79
(dp4726
sI80
(dp4727
sI85
(dp4728
sI86
(dp4729
sI92
(dp4730
sI96
(dp4731
sI98
(dp4732
ssI56
(dp4733
I1
g3513
sI4
g3601
sI8
g3706
sI19
g4008
sI21
g4062
sI24
g4139
sI29
g4237
sI32
g4297
sI36
g4387
sI37
g4411
sI38
g4431
sI40
g4475
sI41
g4487
sI42
g4507
sI43
g4520
sI46
g4567
sI49
g4611
sI51
g4648
sI54
g4704
sI64
(dp4734
sI73
(dp4735
sI77
(dp4736
sI83
(dp4737
sI85
(dp4738
sI87
(dp4739
sI99
(dp4740
ssI57
(dp4741
I0
g3484
sI2
g3540
sI4
g3602
sI7
g3682
sI8
g3707
sI9
g3738
sI10
g3765
sI11
g3792
sI12
g3815
sI17
g3958
sI18
g3982
sI20
g4037
sI22
g4093
sI23
g4115
sI25
g4152
sI26
g4176
sI30
g4260
sI31
g4280
sI38
g4432
sI45
g4550
sI48
g4593
sI49
g4612
sI52
g4666
sI53
g4687
sI54
g4705
sI59
(dp4742
sI61
(dp4743
sI63
(dp4744
sI64
(dp4745
sI66
(dp4746
sI71
(dp4747
sI74
(dp4748
sI75
(dp4749
sI76
(dp4750
sI77
(dp4751
sI80
(dp4752
sI81
(dp4753
sI84
(dp4754
sI86
(dp4755
sI87
(dp4756
sI94
(dp4757
sI97
(dp4758
sI99
(dp4759
ssI58
(dp4760
I0
g3485
sI1
g3514
sI4
g3603
sI12
g3816
sI13
g3843
sI14
g3871
sI15
g3899
sI16
g3928
sI20
g4038
sI21
g4063
sI22
g4094
sI34
g4342
sI36
g4388
sI41
g4488
sI45
g4551
sI48
g4594
sI52
g4667
sI54
g4706
sI65
(dp4761
sI66
(dp4762
sI68
(dp4763
sI70
(dp4764
sI78
(dp4765
sI86
(dp4766
sI88
(dp4767
sI89
(dp4768
sI90
(dp4769
sI98
(dp4770
ssI59
(dp4771
I2
g3541
sI3
g3571
sI5
g3631
sI8
g3708
sI18
g3983
sI20
g4039
sI24
g4140
sI28
g4217
sI33
g4317
sI34
g4343
sI37
g4412
sI38
g4433
sI41
g4489
sI44
g4530
sI45
g4552
sI47
g4576
sI52
g4668
sI54
g4707
sI57
g4742
sI61
(dp4772
sI62
(dp4773
sI65
(dp4774
sI68
(dp4775
sI69
(dp4776
sI70
(dp4777
sI82
(dp4778
sI85
(dp4779
sI88
(dp4780
sI92
(dp4781
sI94
(dp4782
sI96
(dp4783
sI97
(dp4784
sI99
(dp4785
ssI60
(dp4786
I0
g3486
sI51
g4649
sI2
g3542
sI35
g4368
sI69
(dp4787
sI39
g4452
sI64
(dp4788
sI41
g4490
sI42
g4508
sI71
(dp4789
sI44
g4531
sI13
g3844
sI14
g3872
sI47
g4577
sI80
(dp4790
sI82
(dp4791
sI19
g4009
sI89
(dp4792
sI62
(dp4793
sI31
g4281
ssI61
(dp4794
I1
g3515
sI3
g3572
sI4
g3604
sI5
g3632
sI6
g3656
sI13
g3845
sI16
g3929
sI18
g3984
sI19
g4010
sI22
g4095
sI26
g4177
sI29
g4238
sI32
g4298
sI33
g4318
sI34
g4344
sI38
g4434
sI43
g4521
sI44
g4532
sI47
g4578
sI52
g4669
sI57
g4743
sI59
g4772
sI64
(dp4795
sI65
(dp4796
sI69
(dp4797
sI70
(dp4798
sI75
(dp4799
sI76
(dp4800
sI77
(dp4801
sI82
(dp4802
sI83
(dp4803
sI84
(dp4804
sI90
(dp4805
sI92
(dp4806
sI93
(dp4807
sI96
(dp4808
sI99
(dp4809
ssI62
(dp4810
I0
g3487
sI2
g3543
sI5
g3633
sI9
g3739
sI10
g3766
sI13
g3846
sI14
g3873
sI15
g3900
sI20
g4040
sI24
g4142
sI25
g4153
sI26
g4178
sI28
g4218
sI36
g4389
sI40
g4476
sI41
g4491
sI44
g4533
sI46
g4568
sI55
g4718
sI59
g4773
sI60
g4793
sI63
(dp4811
sI68
(dp4812
sI85
(dp4813
sI94
(dp4814
sI97
(dp4815
sI98
(dp4816
ssI63
(dp4817
I2
g3544
sI3
g3573
sI4
g3605
sI6
g3657
sI11
g3793
sI12
g3817
sI13
g3847
sI15
g3901
sI25
g4154
sI26
g4179
sI30
g4261
sI32
g4299
sI34
g4345
sI35
g4369
sI36
g4390
sI41
g4492
sI42
g4509
sI49
g4613
sI50
g4634
sI51
g4650
sI52
g4670
sI55
g4719
sI57
g4744
sI62
g4811
sI69
(dp4818
sI73
(dp4819
sI77
(dp4820
sI82
(dp4821
sI83
(dp4822
sI84
(dp4823
sI85
(dp4824
sI89
(dp4825
sI92
(dp4826
sI93
(dp4827
sI94
(dp4828
ssI64
(dp4829
I0
g3488
sI9
g3740
sI12
g3818
sI15
g3902
sI16
g3930
sI17
g3959
sI19
g4011
sI20
g4041
sI22
g4096
sI29
g4239
sI31
g4282
sI34
g4346
sI35
g4370
sI37
g4413
sI39
g4453
sI41
g4493
sI48
g4595
sI49
g4614
sI51
g4651
sI52
g4671
sI53
g4688
sI54
g4708
sI56
g4734
sI57
g4745
sI60
g4788
sI61
g4795
sI65
(dp4830
sI66
(dp4831
sI71
(dp4832
sI75
(dp4833
sI76
(dp4834
sI77
(dp4835
sI78
(dp4836
sI79
(dp4837
sI92
(dp4838
sI93
(dp4839
ssI65
(dp4840
I3
g3574
sI4
g3606
sI5
g3634
sI8
g3709
sI12
g3819
sI20
g4042
sI22
g4097
sI28
g4219
sI29
g4240
sI33
g4319
sI34
g4347
sI39
g4454
sI48
g4596
sI58
g4761
sI59
g4774
sI61
g4796
sI64
g4830
sI70
(dp4841
sI80
(dp4842
sI83
(dp4843
sI84
(dp4844
sI85
(dp4845
sI89
(dp4846
sI91
(dp4847
sI92
(dp4848
sI94
(dp4849
ssI66
(dp4850
I0
g3489
sI6
g3658
sI16
g3931
sI21
g4064
sI25
g4155
sI27
g4198
sI28
g4220
sI35
g4371
sI36
g4391
sI39
g4455
sI45
g4553
sI53
g4689
sI57
g4746
sI58
g4762
sI64
g4831
sI69
(dp4851
sI71
(dp4852
sI78
(dp4853
sI79
(dp4854
sI80
(dp4855
sI82
(dp4856
sI87
(dp4857
sI88
(dp4858
sI93
(dp4859
sI97
(dp4860
ssI67
(dp4861
I1
g3516
sI2
g3545
sI4
g3607
sI5
g3635
sI7
g3683
sI9
g3741
sI11
g3794
sI12
g3820
sI14
g3874
sI20
g4043
sI22
g4098
sI25
g4156
sI29
g4241
sI34
g4348
sI38
g4435
sI39
g4456
sI41
g4494
sI45
g4554
sI51
g4652
sI52
g4672
sI53
g4690
sI70
(dp4862
sI72
(dp4863
sI80
(dp4864
sI82
(dp4865
sI88
(dp4866
sI89
(dp4867
sI92
(dp4868
sI93
(dp4869
sI94
(dp4870
ssI68
(dp4871
I1
g3517
sI8
g3710
sI10
g3767
sI16
g3932
sI18
g3985
sI19
g4012
sI22
g4099
sI25
g4157
sI26
g4180
sI37
g4414
sI38
g4436
sI41
g4495
sI42
g4510
sI44
g4534
sI45
g4555
sI47
g4579
sI50
g4635
sI55
g4720
sI58
g4763
sI59
g4775
sI62
g4812
sI69
(dp4872
sI70
(dp4873
sI76
(dp4874
sI77
(dp4875
sI78
(dp4876
sI79
(dp4877
sI81
(dp4878
sI89
(dp4879
sI94
(dp4880
sI96
(dp4881
sI99
(dp4882
ssI69
(dp4883
I2
g3546
sI3
g3575
sI11
g3795
sI13
g3848
sI14
g3875
sI17
g3960
sI21
g4065
sI25
g4158
sI29
g4242
sI34
g4349
sI35
g4372
sI36
g4392
sI41
g4496
sI43
g4522
sI49
g4615
sI50
g4636
sI53
g4691
sI59
g4776
sI60
g4787
sI61
g4797
sI63
g4818
sI66
g4851
sI68
g4872
sI71
(dp4884
sI74
(dp4885
sI76
(dp4886
sI77
(dp4887
sI87
(dp4888
sI90
(dp4889
sI94
(dp4890
sI98
(dp4891
sI99
(dp4892
ssI70
(dp4893
I1
g3518
sI2
g3547
sI3
g3576
sI12
g3821
sI16
g3933
sI23
g4116
sI27
g4199
sI36
g4393
sI45
g4556
sI49
g4616
sI58
g4764
sI59
g4777
sI61
g4798
sI65
g4841
sI67
g4862
sI68
g4873
sI73
(dp4894
sI83
(dp4895
sI86
(dp4896
sI89
(dp4897
sI93
(dp4898
sI97
(dp4899
sI99
(dp4900
ssI71
(dp4901
I1
g3519
sI5
g3636
sI9
g3742
sI11
g3796
sI19
g4013
sI24
g4132
sI28
g4221
sI32
g4300
sI37
g4415
sI39
g4457
sI41
g4497
sI49
g4617
sI51
g4653
sI52
g4673
sI54
g4709
sI55
g4721
sI57
g4747
sI60
g4789
sI64
g4832
sI66
g4852
sI69
g4884
sI73
(dp4902
sI74
(dp4903
sI82
(dp4904
sI87
(dp4905
sI88
(dp4906
sI89
(dp4907
sI94
(dp4908
sI95
(dp4909
sI98
(dp4910
sI99
(dp4911
ssI72
(dp4912
I34
g4350
sI67
g4863
sI4
g3608
sI6
g3659
sI40
g4477
sI74
(dp4913
sI75
(dp4914
sI44
g4535
sI47
g4580
sI80
(dp4915
sI88
(dp4916
sI52
g4674
sI94
(dp4917
sI89
(dp4918
sI55
g4722
sI24
g4129
sI36
g4394
sI87
(dp4919
sI79
(dp4920
sI29
g4243
sI30
g4262
ssI73
(dp4921
I0
g3490
sI2
g3548
sI10
g3768
sI11
g3797
sI14
g3876
sI15
g3903
sI16
g3934
sI19
g4014
sI20
g4044
sI30
g4263
sI32
g4301
sI35
g4373
sI38
g4437
sI40
g4478
sI49
g4618
sI53
g4692
sI54
g4710
sI56
g4735
sI63
g4819
sI70
g4894
sI71
g4902
sI79
(dp4922
sI80
(dp4923
sI81
(dp4924
sI82
(dp4925
sI83
(dp4926
sI84
(dp4927
sI85
(dp4928
sI86
(dp4929
sI88
(dp4930
sI96
(dp4931
sI98
(dp4932
ssI74
(dp4933
I1
g3520
sI6
g3660
sI7
g3684
sI8
g3711
sI9
g3743
sI10
g3769
sI11
g3798
sI14
g3877
sI16
g3935
sI17
g3961
sI20
g4045
sI24
g4141
sI26
g4181
sI33
g4320
sI34
g4351
sI41
g4498
sI43
g4523
sI48
g4597
sI50
g4637
sI55
g4723
sI57
g4748
sI69
g4885
sI71
g4903
sI72
g4913
sI75
(dp4934
sI77
(dp4935
sI81
(dp4936
sI86
(dp4937
sI87
(dp4938
sI89
(dp4939
sI92
(dp4940
sI97
(dp4941
ssI75
(dp4942
I7
g3685
sI12
g3822
sI15
g3904
sI17
g3962
sI18
g3986
sI24
g4127
sI33
g4321
sI35
g4374
sI37
g4416
sI38
g4438
sI39
g4458
sI49
g4619
sI51
g4654
sI52
g4675
sI57
g4749
sI61
g4799
sI64
g4833
sI72
g4914
sI74
g4934
sI78
(dp4943
sI81
(dp4944
sI89
(dp4945
sI93
(dp4946
sI94
(dp4947
sI96
(dp4948
sI98
(dp4949
ssI76
(dp4950
I0
g3491
sI1
g3521
sI2
g3549
sI3
g3577
sI6
g3661
sI8
g3712
sI9
g3744
sI10
g3770
sI14
g3878
sI17
g3963
sI24
g4134
sI28
g4222
sI30
g4264
sI31
g4283
sI34
g4352
sI36
g4395
sI38
g4439
sI39
g4459
sI41
g4499
sI42
g4511
sI45
g4557
sI50
g4638
sI51
g4655
sI55
g4724
sI57
g4750
sI61
g4800
sI64
g4834
sI68
g4874
sI69
g4886
sI79
(dp4951
sI83
(dp4952
sI84
(dp4953
sI85
(dp4954
sI86
(dp4955
sI87
(dp4956
sI89
(dp4957
sI91
(dp4958
sI95
(dp4959
sI97
(dp4960
sI98
(dp4961
ssI77
(dp4962
I0
g3492
sI8
g3713
sI9
g3745
sI10
g3771
sI13
g3849
sI14
g3879
sI15
g3905
sI24
g4133
sI26
g4182
sI27
g4200
sI30
g4265
sI32
g4302
sI33
g4322
sI36
g4396
sI40
g4479
sI46
g4569
sI53
g4693
sI56
g4736
sI57
g4751
sI61
g4801
sI63
g4820
sI64
g4835
sI68
g4875
sI69
g4887
sI74
g4935
sI79
(dp4963
sI81
(dp4964
sI86
(dp4965
sI88
(dp4966
sI91
(dp4967
sI94
(dp4968
sI99
(dp4969
ssI78
(dp4970
I0
g3493
sI3
g3578
sI5
g3637
sI9
g3746
sI16
g3936
sI19
g4015
sI20
g4046
sI21
g4066
sI26
g4183
sI33
g4323
sI35
g4375
sI38
g4440
sI44
g4536
sI47
g4581
sI49
g4620
sI50
g4639
sI55
g4725
sI58
g4765
sI64
g4836
sI66
g4853
sI68
g4876
sI75
g4943
sI84
(dp4971
sI86
(dp4972
sI88
(dp4973
ssI79
(dp4974
I1
g3522
sI3
g3579
sI4
g3609
sI8
g3714
sI9
g3747
sI13
g3850
sI16
g3937
sI17
g3964
sI18
g3987
sI21
g4067
sI22
g4100
sI23
g4117
sI26
g4184
sI27
g4201
sI28
g4223
sI29
g4244
sI30
g4266
sI33
g4324
sI34
g4353
sI35
g4376
sI37
g4417
sI38
g4441
sI40
g4480
sI44
g4537
sI49
g4621
sI51
g4656
sI55
g4726
sI64
g4837
sI66
g4854
sI68
g4877
sI72
g4920
sI73
g4922
sI76
g4951
sI77
g4963
sI87
(dp4975
sI90
(dp4976
sI95
(dp4977
ssI80
(dp4978
I1
g3523
sI2
g3550
sI8
g3715
sI16
g3938
sI21
g4068
sI26
g4185
sI27
g4202
sI28
g4224
sI30
g4267
sI31
g4284
sI33
g4325
sI36
g4397
sI38
g4442
sI41
g4500
sI47
g4582
sI48
g4598
sI52
g4676
sI53
g4694
sI55
g4727
sI57
g4752
sI60
g4790
sI65
g4842
sI66
g4855
sI67
g4864
sI72
g4915
sI73
g4923
sI81
(dp4979
sI82
(dp4980
sI86
(dp4981
sI87
(dp4982
sI91
(dp4983
sI95
(dp4984
sI96
(dp4985
ssI81
(dp4986
I0
g3494
sI6
g3662
sI8
g3716
sI24
g4135
sI26
g4186
sI27
g4203
sI29
g4245
sI37
g4418
sI39
g4460
sI41
g4501
sI45
g4558
sI47
g4583
sI48
g4599
sI49
g4622
sI50
g4640
sI51
g4657
sI52
g4677
sI54
g4711
sI57
g4753
sI68
g4878
sI73
g4924
sI74
g4936
sI75
g4944
sI77
g4964
sI80
g4979
sI87
(dp4987
sI90
(dp4988
sI92
(dp4989
sI94
(dp4990
sI95
(dp4991
sI96
(dp4992
sI99
(dp4993
ssI82
(dp4994
I0
g3495
sI10
g3772
sI18
g3988
sI21
g4069
sI30
g4268
sI31
g4285
sI44
g4538
sI47
g4584
sI49
g4623
sI52
g4678
sI59
g4778
sI60
g4791
sI61
g4802
sI63
g4821
sI66
g4856
sI67
g4865
sI71
g4904
sI73
g4925
sI80
g4980
sI85
(dp4995
sI88
(dp4996
sI90
(dp4997
sI93
(dp4998
sI97
(dp4999
ssI83
(dp5000
I14
g3880
sI19
g4016
sI25
g4159
sI26
g4187
sI27
g4204
sI35
g4377
sI36
g4398
sI39
g4461
sI40
g4481
sI46
g4570
sI53
g4695
sI56
g4737
sI61
g4803
sI63
g4822
sI65
g4843
sI70
g4895
sI73
g4926
sI76
g4952
sI85
(dp5001
sI91
(dp5002
sI95
(dp5003
sI96
(dp5004
ssI84
(dp5005
I2
g3551
sI9
g3748
sI12
g3823
sI16
g3939
sI17
g3965
sI19
g4017
sI21
g4070
sI22
g4101
sI23
g4118
sI27
g4205
sI29
g4246
sI31
g4286
sI32
g4303
sI35
g4378
sI36
g4399
sI37
g4419
sI42
g4512
sI54
g4712
sI57
g4754
sI61
g4804
sI63
g4823
sI65
g4844
sI73
g4927
sI76
g4953
sI78
g4971
sI94
(dp5006
sI95
(dp5007
sI96
(dp5008
ssI85
(dp5009
I3
g3580
sI5
g3638
sI8
g3717
sI11
g3799
sI15
g3906
sI18
g3989
sI19
g4018
sI20
g4047
sI32
g4304
sI36
g4400
sI37
g4420
sI39
g4462
sI48
g4600
sI49
g4624
sI50
g4641
sI53
g4696
sI55
g4728
sI56
g4738
sI59
g4779
sI62
g4813
sI63
g4824
sI65
g4845
sI73
g4928
sI76
g4954
sI82
g4995
sI83
g5001
sI88
(dp5010
sI91
(dp5011
sI93
(dp5012
sI94
(dp5013
sI96
(dp5014
sI97
(dp5015
ssI86
(dp5016
I5
g3639
sI6
g3663
sI10
g3773
sI11
g3800
sI12
g3824
sI14
g3881
sI19
g4019
sI29
g4247
sI30
g4269
sI31
g4287
sI36
g4401
sI37
g4421
sI38
g4443
sI42
g4513
sI46
g4571
sI47
g4585
sI51
g4658
sI54
g4713
sI55
g4729
sI57
g4755
sI58
g4766
sI70
g4896
sI73
g4929
sI74
g4937
sI76
g4955
sI77
g4965
sI78
g4972
sI80
g4981
sI96
(dp5017
sI98
(dp5018
ssI87
(dp5019
I0
g3496
sI3
g3581
sI10
g3774
sI11
g3801
sI15
g3907
sI21
g4071
sI29
g4248
sI33
g4326
sI43
g4524
sI45
g4559
sI48
g4601
sI56
g4739
sI57
g4756
sI66
g4857
sI69
g4888
sI71
g4905
sI72
g4919
sI74
g4938
sI76
g4956
sI79
g4975
sI80
g4982
sI81
g4987
sI88
(dp5020
sI90
(dp5021
sI94
(dp5022
sI98
(dp5023
ssI88
(dp5024
I4
g3610
sI11
g3802
sI18
g3990
sI19
g4020
sI21
g4072
sI27
g4206
sI31
g4288
sI34
g4354
sI44
g4539
sI48
g4602
sI49
g4625
sI52
g4679
sI53
g4697
sI54
g4714
sI58
g4767
sI59
g4780
sI66
g4858
sI67
g4866
sI71
g4906
sI72
g4916
sI73
g4930
sI77
g4966
sI78
g4973
sI82
g4996
sI85
g5010
sI87
g5020
sI93
(dp5025
sI94
(dp5026
sI95
(dp5027
sI97
(dp5028
sI99
(dp5029
ssI89
(dp5030
I3
g3582
sI13
g3851
sI14
g3882
sI15
g3908
sI20
g4048
sI23
g4119
sI25
g4160
sI30
g4270
sI33
g4327
sI34
g4355
sI39
g4463
sI51
g4659
sI52
g4680
sI53
g4698
sI58
g4768
sI60
g4792
sI63
g4825
sI65
g4846
sI67
g4867
sI68
g4879
sI70
g4897
sI71
g4907
sI72
g4918
sI74
g4939
sI75
g4945
sI76
g4957
sI94
(dp5031
ssI90
(dp5032
I32
g4305
sI33
g4328
sI35
g4379
sI4
g3611
sI69
g4889
sI7
g3686
sI8
g3718
sI42
g4514
sI87
g5021
sI12
g3825
sI61
g4805
sI81
g4988
sI82
g4997
sI53
g4699
sI23
g4120
sI25
g4161
sI58
g4769
sI79
g4976
sI29
g4249
ssI91
(dp5033
I0
g3497
sI1
g3524
sI9
g3749
sI12
g3826
sI15
g3909
sI20
g4049
sI22
g4102
sI24
g4136
sI25
g4162
sI27
g4207
sI31
g4289
sI33
g4329
sI36
g4402
sI38
g4444
sI39
g4464
sI43
g4525
sI44
g4540
sI47
g4586
sI50
g4642
sI51
g4660
sI65
g4847
sI76
g4958
sI77
g4967
sI80
g4983
sI83
g5002
sI85
g5011
sI92
(dp5034
sI94
(dp5035
sI96
(dp5036
sI99
(dp5037
ssI92
(dp5038
I0
g3498
sI1
g3525
sI6
g3664
sI7
g3687
sI8
g3719
sI9
g3750
sI12
g3827
sI13
g3852
sI16
g3940
sI21
g4073
sI23
g4121
sI25
g4163
sI28
g4225
sI33
g4330
sI37
g4422
sI41
g4502
sI42
g4515
sI49
g4626
sI55
g4730
sI59
g4781
sI61
g4806
sI63
g4826
sI64
g4838
sI65
g4848
sI67
g4868
sI74
g4940
sI81
g4989
sI91
g5034
sI96
(dp5039
ssI93
(dp5040
I1
g3526
sI4
g3612
sI7
g3688
sI8
g3720
sI11
g3803
sI13
g3853
sI15
g3910
sI16
g3941
sI21
g4074
sI25
g4164
sI28
g4226
sI29
g4250
sI33
g4331
sI34
g4356
sI44
g4541
sI46
g4572
sI49
g4627
sI53
g4700
sI61
g4807
sI63
g4827
sI64
g4839
sI66
g4859
sI67
g4869
sI70
g4898
sI75
g4946
sI82
g4998
sI85
g5012
sI88
g5025
ssI94
(dp5041
I0
g3499
sI3
g3583
sI4
g3613
sI8
g3721
sI15
g3911
sI16
g3942
sI18
g3991
sI19
g4021
sI20
g4050
sI21
g4075
sI27
g4208
sI28
g4227
sI29
g4251
sI30
g4271
sI33
g4332
sI35
g4380
sI39
g4465
sI44
g4542
sI49
g4628
sI50
g4643
sI51
g4661
sI52
g4681
sI54
g4715
sI57
g4757
sI59
g4782
sI62
g4814
sI63
g4828
sI65
g4849
sI67
g4870
sI68
g4880
sI69
g4890
sI71
g4908
sI72
g4917
sI75
g4947
sI77
g4968
sI81
g4990
sI84
g5006
sI85
g5013
sI87
g5022
sI88
g5026
sI89
g5031
sI91
g5035
ssI95
(dp5042
I6
g3665
sI8
g3722
sI9
g3751
sI12
g3828
sI23
g4122
sI27
g4209
sI28
g4228
sI43
g4526
sI44
g4543
sI48
g4603
sI49
g4629
sI50
g4644
sI51
g4662
sI71
g4909
sI76
g4959
sI79
g4977
sI80
g4984
sI81
g4991
sI83
g5003
sI84
g5007
sI88
g5027
sI99
(dp5043
ssI96
(dp5044
I0
g3500
sI8
g3723
sI17
g3966
sI19
g4022
sI21
g4076
sI23
g4123
sI24
g4126
sI30
g4272
sI36
g4403
sI37
g4423
sI38
g4445
sI39
g4466
sI40
g4482
sI49
g4630
sI52
g4682
sI55
g4731
sI59
g4783
sI61
g4808
sI68
g4881
sI73
g4931
sI75
g4948
sI80
g4985
sI81
g4992
sI83
g5004
sI84
g5008
sI85
g5014
sI86
g5017
sI91
g5036
sI92
g5039
sI98
(dp5045
sI99
(dp5046
ssI97
(dp5047
I32
g4306
sI48
g4604
sI66
g4860
sI70
g4899
sI39
g4467
sI41
g4503
sI42
g4516
sI76
g4960
sI13
g3854
sI16
g3943
sI82
g4999
sI52
g4683
sI53
g4701
sI23
g4124
sI88
g5028
sI57
g4758
sI59
g4784
sI28
g4229
sI74
g4941
sI62
g4815
sI85
g5015
ssI98
(dp5048
I11
g3804
sI13
g3855
sI14
g3883
sI15
g3912
sI19
g4023
sI27
g4210
sI34
g4357
sI35
g4381
sI36
g4404
sI37
g4424
sI41
g4504
sI46
g4573
sI47
g4587
sI48
g4605
sI50
g4645
sI52
g4684
sI54
g4716
sI55
g4732
sI58
g4770
sI62
g4816
sI69
g4891
sI71
g4910
sI73
g4932
sI75
g4949
sI76
g4961
sI86
g5018
sI87
g5023
sI96
g5045
ssI99
(dp5049
I4
g3614
sI9
g3752
sI10
g3775
sI12
g3829
sI13
g3856
sI14
g3884
sI17
g3967
sI18
g3992
sI19
g4024
sI20
g4051
sI22
g4103
sI24
g4137
sI25
g4165
sI26
g4188
sI34
g4358
sI39
g4468
sI41
g4505
sI51
g4663
sI56
g4740
sI57
g4759
sI59
g4785
sI61
g4809
sI68
g4882
sI69
g4892
sI70
g4900
sI71
g4911
sI77
g4969
sI81
g4993
sI88
g5029
sI91
g5037
sI95
g5043
sI96
g5046
sssg1697
g3466
sbsI3
g0
(g8
g2
Ntp5050
Rp5051
(dp5052
g12
(dp5053
I0
(dp5054
sI1
(dp5055
sI2
(dp5056
sI3
(dp5057
sI4
(dp5058
sI5
(dp5059
sI6
(dp5060
sI7
(dp5061
sI8
(dp5062
sI9
(dp5063
sI10
(dp5064
sI11
(dp5065
sI12
(dp5066
sI13
(dp5067
sI14
(dp5068
sI15
(dp5069
sI16
(dp5070
sI17
(dp5071
sI18
(dp5072
sI19
(dp5073
sI20
(dp5074
sI21
(dp5075
sI22
(dp5076
sI23
(dp5077
sI24
(dp5078
sI25
(dp5079
sI26
(dp5080
sI27
(dp5081
sI28
(dp5082
sI29
(dp5083
sI30
(dp5084
sI31
(dp5085
sI32
(dp5086
sI33
(dp5087
sI34
(dp5088
sI35
(dp5089
sI36
(dp5090
sI37
(dp5091
sI38
(dp5092
sI39
(dp5093
sI40
(dp5094
sI41
(dp5095
sI42
(dp5096
sI43
(dp5097
sI44
(dp5098
sI45
(dp5099
sI46
(dp5100
sI47
(dp5101
sI48
(dp5102
sI49
(dp5103
sI50
(dp5104
sI51
(dp5105
sI52
(dp5106
sI53
(dp5107
sI54
(dp5108
sI55
(dp5109
sI56
(dp5110
sI57
(dp5111
sI58
(dp5112
sI59
(dp5113
sI60
(dp5114
sI61
(dp5115
sI62
(dp5116
sI63
(dp5117
sI64
(dp5118
sI65
(dp5119
sI66
(dp5120
sI67
(dp5121
sI68
(dp5122
sI69
(dp5123
sI70
(dp5124
sI71
(dp5125
sI72
(dp5126
sI73
(dp5127
sI74
(dp5128
sI75
(dp5129
sI76
(dp5130
sI77
(dp5131
sI78
(dp5132
sI79
(dp5133
sI80
(dp5134
sI81
(dp5135
sI82
(dp5136
sI83
(dp5137
sI84
(dp5138
sI85
(dp5139
sI86
(dp5140
sI87
(dp5141
sI88
(dp5142
sI89
(dp5143
sI90
(dp5144
sI91
(dp5145
sI92
(dp5146
sI93
(dp5147
sI94
(dp5148
sI95
(dp5149
sI96
(dp5150
sI97
(dp5151
sI98
(dp5152
sI99
(dp5153
ssg114
(dp5154
sg116
(dp5155
I0
(dp5156
I6
(dp5157
sI9
(dp5158
sI10
(dp5159
sI15
(dp5160
sI16
(dp5161
sI18
(dp5162
sI28
(dp5163
sI30
(dp5164
sI36
(dp5165
sI41
(dp5166
sI44
(dp5167
sI45
(dp5168
sI49
(dp5169
sI50
(dp5170
sI55
(dp5171
sI56
(dp5172
sI58
(dp5173
sI60
(dp5174
sI61
(dp5175
sI64
(dp5176
sI71
(dp5177
sI74
(dp5178
sI84
(dp5179
sI92
(dp5180
sI93
(dp5181
sI94
(dp5182
sI98
(dp5183
sI99
(dp5184
ssI1
(dp5185
I5
(dp5186
sI7
(dp5187
sI8
(dp5188
sI9
(dp5189
sI13
(dp5190
sI17
(dp5191
sI18
(dp5192
sI23
(dp5193
sI24
(dp5194
sI26
(dp5195
sI29
(dp5196
sI30
(dp5197
sI32
(dp5198
sI34
(dp5199
sI35
(dp5200
sI36
(dp5201
sI39
(dp5202
sI40
(dp5203
sI41
(dp5204
sI43
(dp5205
sI44
(dp5206
sI45
(dp5207
sI46
(dp5208
sI47
(dp5209
sI50
(dp5210
sI53
(dp5211
sI54
(dp5212
sI55
(dp5213
sI56
(dp5214
sI59
(dp5215
sI67
(dp5216
sI68
(dp5217
sI86
(dp5218
sI93
(dp5219
sI96
(dp5220
ssI2
(dp5221
I4
(dp5222
sI15
(dp5223
sI19
(dp5224
sI23
(dp5225
sI25
(dp5226
sI30
(dp5227
sI31
(dp5228
sI34
(dp5229
sI38
(dp5230
sI40
(dp5231
sI42
(dp5232
sI49
(dp5233
sI50
(dp5234
sI59
(dp5235
sI64
(dp5236
sI65
(dp5237
sI68
(dp5238
sI69
(dp5239
sI70
(dp5240
sI75
(dp5241
sI82
(dp5242
sI85
(dp5243
sI86
(dp5244
sI88
(dp5245
sI91
(dp5246
sI93
(dp5247
sI95
(dp5248
ssI3
(dp5249
I4
(dp5250
sI13
(dp5251
sI15
(dp5252
sI17
(dp5253
sI20
(dp5254
sI25
(dp5255
sI26
(dp5256
sI28
(dp5257
sI30
(dp5258
sI31
(dp5259
sI34
(dp5260
sI39
(dp5261
sI42
(dp5262
sI48
(dp5263
sI49
(dp5264
sI53
(dp5265
sI55
(dp5266
sI57
(dp5267
sI68
(dp5268
sI69
(dp5269
sI70
(dp5270
sI71
(dp5271
sI76
(dp5272
sI86
(dp5273
sI90
(dp5274
sI91
(dp5275
sI95
(dp5276
ssI4
(dp5277
I2
g5222
sI3
g5250
sI5
(dp5278
sI7
(dp5279
sI19
(dp5280
sI21
(dp5281
sI23
(dp5282
sI25
(dp5283
sI35
(dp5284
sI38
(dp5285
sI41
(dp5286
sI43
(dp5287
sI47
(dp5288
sI49
(dp5289
sI53
(dp5290
sI54
(dp5291
sI55
(dp5292
sI57
(dp5293
sI64
(dp5294
sI65
(dp5295
sI70
(dp5296
sI72
(dp5297
sI74
(dp5298
sI78
(dp5299
sI80
(dp5300
sI84
(dp5301
sI85
(dp5302
sI86
(dp5303
sI87
(dp5304
sI92
(dp5305
sI95
(dp5306
sI98
(dp5307
sI99
(dp5308
ssI5
(dp5309
I1
g5186
sI4
g5278
sI9
(dp5310
sI14
(dp5311
sI16
(dp5312
sI19
(dp5313
sI23
(dp5314
sI28
(dp5315
sI30
(dp5316
sI33
(dp5317
sI34
(dp5318
sI39
(dp5319
sI41
(dp5320
sI47
(dp5321
sI50
(dp5322
sI51
(dp5323
sI55
(dp5324
sI56
(dp5325
sI62
(dp5326
sI64
(dp5327
sI66
(dp5328
sI67
(dp5329
sI68
(dp5330
sI69
(dp5331
sI73
(dp5332
sI77
(dp5333
sI81
(dp5334
sI85
(dp5335
sI87
(dp5336
sI90
(dp5337
sI92
(dp5338
sI94
(dp5339
sI95
(dp5340
sI96
(dp5341
ssI6
(dp5342
I0
g5157
sI7
(dp5343
sI12
(dp5344
sI15
(dp5345
sI17
(dp5346
sI21
(dp5347
sI22
(dp5348
sI25
(dp5349
sI30
(dp5350
sI31
(dp5351
sI34
(dp5352
sI38
(dp5353
sI41
(dp5354
sI42
(dp5355
sI43
(dp5356
sI45
(dp5357
sI50
(dp5358
sI55
(dp5359
sI57
(dp5360
sI58
(dp5361
sI68
(dp5362
sI77
(dp5363
sI82
(dp5364
sI92
(dp5365
sI93
(dp5366
sI97
(dp5367
ssI7
(dp5368
I1
g5187
sI4
g5279
sI6
g5343
sI14
(dp5369
sI15
(dp5370
sI21
(dp5371
sI24
(dp5372
sI25
(dp5373
sI27
(dp5374
sI28
(dp5375
sI30
(dp5376
sI31
(dp5377
sI50
(dp5378
sI51
(dp5379
sI60
(dp5380
sI63
(dp5381
sI68
(dp5382
sI70
(dp5383
sI71
(dp5384
sI72
(dp5385
sI75
(dp5386
sI76
(dp5387
sI78
(dp5388
sI79
(dp5389
sI83
(dp5390
sI87
(dp5391
sI89
(dp5392
sI90
(dp5393
sI91
(dp5394
sI95
(dp5395
sI96
(dp5396
sI99
(dp5397
ssI8
(dp5398
I1
g5188
sI13
(dp5399
sI18
(dp5400
sI20
(dp5401
sI23
(dp5402
sI25
(dp5403
sI30
(dp5404
sI33
(dp5405
sI37
(dp5406
sI41
(dp5407
sI44
(dp5408
sI46
(dp5409
sI47
(dp5410
sI51
(dp5411
sI55
(dp5412
sI58
(dp5413
sI61
(dp5414
sI65
(dp5415
sI70
(dp5416
sI73
(dp5417
sI74
(dp5418
sI77
(dp5419
sI80
(dp5420
sI83
(dp5421
sI86
(dp5422
sI87
(dp5423
sI88
(dp5424
sI89
(dp5425
sI93
(dp5426
sI97
(dp5427
sI99
(dp5428
ssI9
(dp5429
I0
g5158
sI1
g5189
sI5
g5310
sI12
(dp5430
sI16
(dp5431
sI21
(dp5432
sI22
(dp5433
sI26
(dp5434
sI30
(dp5435
sI32
(dp5436
sI33
(dp5437
sI36
(dp5438
sI42
(dp5439
sI43
(dp5440
sI45
(dp5441
sI47
(dp5442
sI53
(dp5443
sI54
(dp5444
sI56
(dp5445
sI58
(dp5446
sI61
(dp5447
sI62
(dp5448
sI64
(dp5449
sI65
(dp5450
sI66
(dp5451
sI73
(dp5452
sI75
(dp5453
sI84
(dp5454
sI86
(dp5455
sI88
(dp5456
sI90
(dp5457
sI94
(dp5458
sI95
(dp5459
ssI10
(dp5460
I0
g5159
sI12
(dp5461
sI13
(dp5462
sI15
(dp5463
sI16
(dp5464
sI24
(dp5465
sI25
(dp5466
sI26
(dp5467
sI29
(dp5468
sI31
(dp5469
sI34
(dp5470
sI36
(dp5471
sI40
(dp5472
sI42
(dp5473
sI49
(dp5474
sI50
(dp5475
sI54
(dp5476
sI55
(dp5477
sI63
(dp5478
sI69
(dp5479
sI78
(dp5480
sI85
(dp5481
sI89
(dp5482
sI90
(dp5483
sI91
(dp5484
sI94
(dp5485
sI96
(dp5486
sI98
(dp5487
ssI11
(dp5488
I15
(dp5489
sI16
(dp5490
sI19
(dp5491
sI20
(dp5492
sI23
(dp5493
sI25
(dp5494
sI27
(dp5495
sI34
(dp5496
sI37
(dp5497
sI41
(dp5498
sI45
(dp5499
sI47
(dp5500
sI48
(dp5501
sI56
(dp5502
sI68
(dp5503
sI69
(dp5504
sI73
(dp5505
sI75
(dp5506
sI77
(dp5507
sI79
(dp5508
sI89
(dp5509
sI90
(dp5510
sI91
(dp5511
sI92
(dp5512
sI95
(dp5513
sI96
(dp5514
sI99
(dp5515
ssI12
(dp5516
I6
g5344
sI9
g5430
sI10
g5461
sI13
(dp5517
sI19
(dp5518
sI21
(dp5519
sI25
(dp5520
sI32
(dp5521
sI34
(dp5522
sI36
(dp5523
sI53
(dp5524
sI55
(dp5525
sI57
(dp5526
sI58
(dp5527
sI62
(dp5528
sI63
(dp5529
sI73
(dp5530
sI74
(dp5531
sI79
(dp5532
sI82
(dp5533
sI84
(dp5534
sI85
(dp5535
sI86
(dp5536
sI93
(dp5537
sI96
(dp5538
ssI13
(dp5539
I1
g5190
sI3
g5251
sI8
g5399
sI10
g5462
sI12
g5517
sI18
(dp5540
sI21
(dp5541
sI23
(dp5542
sI27
(dp5543
sI28
(dp5544
sI30
(dp5545
sI32
(dp5546
sI35
(dp5547
sI38
(dp5548
sI39
(dp5549
sI41
(dp5550
sI46
(dp5551
sI54
(dp5552
sI57
(dp5553
sI63
(dp5554
sI67
(dp5555
sI68
(dp5556
sI70
(dp5557
sI71
(dp5558
sI78
(dp5559
sI81
(dp5560
sI85
(dp5561
sI86
(dp5562
sI87
(dp5563
sI91
(dp5564
sI95
(dp5565
sI96
(dp5566
sI98
(dp5567
ssI14
(dp5568
I5
g5311
sI7
g5369
sI19
(dp5569
sI21
(dp5570
sI23
(dp5571
sI24
(dp5572
sI25
(dp5573
sI30
(dp5574
sI38
(dp5575
sI44
(dp5576
sI45
(dp5577
sI52
(dp5578
sI53
(dp5579
sI55
(dp5580
sI59
(dp5581
sI62
(dp5582
sI63
(dp5583
sI66
(dp5584
sI68
(dp5585
sI73
(dp5586
sI75
(dp5587
sI79
(dp5588
sI81
(dp5589
sI83
(dp5590
sI87
(dp5591
sI91
(dp5592
sI92
(dp5593
sI94
(dp5594
sI95
(dp5595
sI98
(dp5596
sI99
(dp5597
ssI15
(dp5598
I0
g5160
sI2
g5223
sI3
g5252
sI6
g5345
sI7
g5370
sI10
g5463
sI11
g5489
sI17
(dp5599
sI20
(dp5600
sI21
(dp5601
sI35
(dp5602
sI40
(dp5603
sI42
(dp5604
sI43
(dp5605
sI45
(dp5606
sI50
(dp5607
sI51
(dp5608
sI56
(dp5609
sI58
(dp5610
sI64
(dp5611
sI65
(dp5612
sI66
(dp5613
sI77
(dp5614
sI80
(dp5615
sI85
(dp5616
sI92
(dp5617
sI93
(dp5618
sI95
(dp5619
sI97
(dp5620
ssI16
(dp5621
I0
g5161
sI5
g5312
sI9
g5431
sI10
g5464
sI11
g5490
sI17
(dp5622
sI18
(dp5623
sI19
(dp5624
sI20
(dp5625
sI25
(dp5626
sI34
(dp5627
sI37
(dp5628
sI41
(dp5629
sI43
(dp5630
sI45
(dp5631
sI46
(dp5632
sI47
(dp5633
sI48
(dp5634
sI49
(dp5635
sI50
(dp5636
sI54
(dp5637
sI60
(dp5638
sI63
(dp5639
sI64
(dp5640
sI68
(dp5641
sI70
(dp5642
sI73
(dp5643
sI76
(dp5644
sI77
(dp5645
sI83
(dp5646
sI88
(dp5647
sI93
(dp5648
sI96
(dp5649
ssI17
(dp5650
I1
g5191
sI3
g5253
sI6
g5346
sI15
g5599
sI16
g5622
sI26
(dp5651
sI31
(dp5652
sI32
(dp5653
sI39
(dp5654
sI41
(dp5655
sI45
(dp5656
sI53
(dp5657
sI58
(dp5658
sI63
(dp5659
sI65
(dp5660
sI68
(dp5661
sI73
(dp5662
sI79
(dp5663
sI80
(dp5664
sI82
(dp5665
sI84
(dp5666
sI92
(dp5667
ssI18
(dp5668
I0
g5162
sI1
g5192
sI8
g5400
sI13
g5540
sI16
g5623
sI20
(dp5669
sI21
(dp5670
sI27
(dp5671
sI28
(dp5672
sI29
(dp5673
sI35
(dp5674
sI36
(dp5675
sI39
(dp5676
sI40
(dp5677
sI41
(dp5678
sI46
(dp5679
sI50
(dp5680
sI52
(dp5681
sI53
(dp5682
sI54
(dp5683
sI57
(dp5684
sI63
(dp5685
sI65
(dp5686
sI70
(dp5687
sI72
(dp5688
sI73
(dp5689
sI74
(dp5690
sI77
(dp5691
sI82
(dp5692
sI83
(dp5693
sI86
(dp5694
sI89
(dp5695
sI97
(dp5696
sI98
(dp5697
sI99
(dp5698
ssI19
(dp5699
I2
g5224
sI4
g5280
sI5
g5313
sI11
g5491
sI12
g5518
sI14
g5569
sI16
g5624
sI20
(dp5700
sI30
(dp5701
sI34
(dp5702
sI38
(dp5703
sI47
(dp5704
sI55
(dp5705
sI57
(dp5706
sI59
(dp5707
sI61
(dp5708
sI62
(dp5709
sI64
(dp5710
sI65
(dp5711
sI66
(dp5712
sI67
(dp5713
sI75
(dp5714
sI76
(dp5715
sI78
(dp5716
sI80
(dp5717
sI86
(dp5718
sI89
(dp5719
sI92
(dp5720
sI97
(dp5721
ssI20
(dp5722
I3
g5254
sI8
g5401
sI11
g5492
sI15
g5600
sI16
g5625
sI18
g5669
sI19
g5700
sI21
(dp5723
sI26
(dp5724
sI28
(dp5725
sI32
(dp5726
sI34
(dp5727
sI38
(dp5728
sI39
(dp5729
sI42
(dp5730
sI45
(dp5731
sI47
(dp5732
sI50
(dp5733
sI52
(dp5734
sI58
(dp5735
sI60
(dp5736
sI61
(dp5737
sI72
(dp5738
sI73
(dp5739
sI74
(dp5740
sI78
(dp5741
sI80
(dp5742
sI81
(dp5743
sI84
(dp5744
sI85
(dp5745
sI87
(dp5746
sI89
(dp5747
sI93
(dp5748
sI99
(dp5749
ssI21
(dp5750
I4
g5281
sI6
g5347
sI7
g5371
sI9
g5432
sI12
g5519
sI13
g5541
sI14
g5570
sI15
g5601
sI18
g5670
sI20
g5723
sI22
(dp5751
sI24
(dp5752
sI26
(dp5753
sI27
(dp5754
sI31
(dp5755
sI35
(dp5756
sI49
(dp5757
sI50
(dp5758
sI53
(dp5759
sI54
(dp5760
sI55
(dp5761
sI56
(dp5762
sI58
(dp5763
sI66
(dp5764
sI68
(dp5765
sI70
(dp5766
sI73
(dp5767
sI74
(dp5768
sI76
(dp5769
sI77
(dp5770
sI78
(dp5771
sI80
(dp5772
sI81
(dp5773
sI84
(dp5774
sI93
(dp5775
sI94
(dp5776
ssI22
(dp5777
I6
g5348
sI9
g5433
sI21
g5751
sI25
(dp5778
sI27
(dp5779
sI28
(dp5780
sI29
(dp5781
sI30
(dp5782
sI31
(dp5783
sI34
(dp5784
sI36
(dp5785
sI39
(dp5786
sI42
(dp5787
sI43
(dp5788
sI45
(dp5789
sI47
(dp5790
sI54
(dp5791
sI57
(dp5792
sI60
(dp5793
sI61
(dp5794
sI62
(dp5795
sI68
(dp5796
sI73
(dp5797
sI75
(dp5798
sI76
(dp5799
sI80
(dp5800
sI91
(dp5801
sI94
(dp5802
ssI23
(dp5803
I1
g5193
sI2
g5225
sI4
g5282
sI5
g5314
sI8
g5402
sI11
g5493
sI13
g5542
sI14
g5571
sI26
(dp5804
sI27
(dp5805
sI34
(dp5806
sI43
(dp5807
sI46
(dp5808
sI47
(dp5809
sI55
(dp5810
sI57
(dp5811
sI58
(dp5812
sI61
(dp5813
sI65
(dp5814
sI67
(dp5815
sI70
(dp5816
sI72
(dp5817
sI75
(dp5818
sI76
(dp5819
sI83
(dp5820
sI89
(dp5821
sI91
(dp5822
sI93
(dp5823
sI97
(dp5824
ssI24
(dp5825
I1
g5194
sI7
g5372
sI10
g5465
sI14
g5572
sI21
g5752
sI26
(dp5826
sI29
(dp5827
sI43
(dp5828
sI47
(dp5829
sI51
(dp5830
sI56
(dp5831
sI58
(dp5832
sI64
(dp5833
sI67
(dp5834
sI68
(dp5835
sI69
(dp5836
sI72
(dp5837
sI75
(dp5838
sI78
(dp5839
sI81
(dp5840
sI88
(dp5841
sI89
(dp5842
sI93
(dp5843
sI94
(dp5844
sI97
(dp5845
ssI25
(dp5846
I2
g5226
sI3
g5255
sI4
g5283
sI6
g5349
sI7
g5373
sI8
g5403
sI10
g5466
sI11
g5494
sI12
g5520
sI14
g5573
sI16
g5626
sI22
g5778
sI27
(dp5847
sI28
(dp5848
sI36
(dp5849
sI38
(dp5850
sI44
(dp5851
sI53
(dp5852
sI54
(dp5853
sI56
(dp5854
sI60
(dp5855
sI64
(dp5856
sI65
(dp5857
sI69
(dp5858
sI87
(dp5859
sI89
(dp5860
sI90
(dp5861
sI92
(dp5862
sI95
(dp5863
sI99
(dp5864
ssI26
(dp5865
I1
g5195
sI3
g5256
sI9
g5434
sI10
g5467
sI17
g5651
sI20
g5724
sI21
g5753
sI23
g5804
sI24
g5826
sI28
(dp5866
sI33
(dp5867
sI37
(dp5868
sI38
(dp5869
sI39
(dp5870
sI44
(dp5871
sI45
(dp5872
sI48
(dp5873
sI50
(dp5874
sI53
(dp5875
sI55
(dp5876
sI59
(dp5877
sI63
(dp5878
sI64
(dp5879
sI77
(dp5880
sI79
(dp5881
sI80
(dp5882
sI82
(dp5883
sI88
(dp5884
sI90
(dp5885
sI93
(dp5886
sI94
(dp5887
ssI27
(dp5888
I7
g5374
sI11
g5495
sI13
g5543
sI18
g5671
sI21
g5754
sI22
g5779
sI23
g5805
sI25
g5847
sI28
(dp5889
sI32
(dp5890
sI34
(dp5891
sI35
(dp5892
sI36
(dp5893
sI43
(dp5894
sI47
(dp5895
sI48
(dp5896
sI56
(dp5897
sI57
(dp5898
sI58
(dp5899
sI60
(dp5900
sI61
(dp5901
sI62
(dp5902
sI63
(dp5903
sI64
(dp5904
sI66
(dp5905
sI69
(dp5906
sI70
(dp5907
sI73
(dp5908
sI76
(dp5909
sI77
(dp5910
sI81
(dp5911
sI83
(dp5912
sI84
(dp5913
sI87
(dp5914
sI90
(dp5915
sI97
(dp5916
sI99
(dp5917
ssI28
(dp5918
I0
g5163
sI3
g5257
sI5
g5315
sI7
g5375
sI13
g5544
sI18
g5672
sI20
g5725
sI22
g5780
sI25
g5848
sI26
g5866
sI27
g5889
sI29
(dp5919
sI32
(dp5920
sI35
(dp5921
sI38
(dp5922
sI40
(dp5923
sI43
(dp5924
sI44
(dp5925
sI50
(dp5926
sI51
(dp5927
sI52
(dp5928
sI53
(dp5929
sI54
(dp5930
sI64
(dp5931
sI68
(dp5932
sI77
(dp5933
sI80
(dp5934
sI82
(dp5935
sI93
(dp5936
sI95
(dp5937
sI98
(dp5938
ssI29
(dp5939
I1
g5196
sI10
g5468
sI18
g5673
sI22
g5781
sI24
g5827
sI28
g5919
sI34
(dp5940
sI42
(dp5941
sI44
(dp5942
sI45
(dp5943
sI46
(dp5944
sI51
(dp5945
sI56
(dp5946
sI57
(dp5947
sI59
(dp5948
sI61
(dp5949
sI62
(dp5950
sI63
(dp5951
sI68
(dp5952
sI77
(dp5953
sI78
(dp5954
sI80
(dp5955
sI83
(dp5956
sI86
(dp5957
sI87
(dp5958
sI88
(dp5959
sI94
(dp5960
sI95
(dp5961
sI97
(dp5962
ssI30
(dp5963
I0
g5164
sI1
g5197
sI2
g5227
sI3
g5258
sI5
g5316
sI6
g5350
sI7
g5376
sI8
g5404
sI9
g5435
sI13
g5545
sI14
g5574
sI19
g5701
sI22
g5782
sI32
(dp5964
sI33
(dp5965
sI37
(dp5966
sI38
(dp5967
sI40
(dp5968
sI53
(dp5969
sI54
(dp5970
sI55
(dp5971
sI56
(dp5972
sI61
(dp5973
sI63
(dp5974
sI65
(dp5975
sI68
(dp5976
sI71
(dp5977
sI88
(dp5978
sI96
(dp5979
ssI31
(dp5980
I2
g5228
sI3
g5259
sI6
g5351
sI7
g5377
sI10
g5469
sI17
g5652
sI21
g5755
sI22
g5783
sI33
(dp5981
sI34
(dp5982
sI35
(dp5983
sI38
(dp5984
sI48
(dp5985
sI49
(dp5986
sI51
(dp5987
sI52
(dp5988
sI53
(dp5989
sI54
(dp5990
sI56
(dp5991
sI59
(dp5992
sI62
(dp5993
sI64
(dp5994
sI67
(dp5995
sI82
(dp5996
sI89
(dp5997
sI92
(dp5998
sI93
(dp5999
sI96
(dp6000
sI99
(dp6001
ssI32
(dp6002
I1
g5198
sI9
g5436
sI12
g5521
sI13
g5546
sI17
g5653
sI20
g5726
sI27
g5890
sI28
g5920
sI30
g5964
sI35
(dp6003
sI40
(dp6004
sI48
(dp6005
sI49
(dp6006
sI50
(dp6007
sI56
(dp6008
sI57
(dp6009
sI59
(dp6010
sI66
(dp6011
sI67
(dp6012
sI71
(dp6013
sI74
(dp6014
sI75
(dp6015
sI82
(dp6016
sI83
(dp6017
sI84
(dp6018
sI85
(dp6019
sI86
(dp6020
sI89
(dp6021
sI96
(dp6022
sI99
(dp6023
ssI33
(dp6024
I5
g5317
sI8
g5405
sI9
g5437
sI26
g5867
sI30
g5965
sI31
g5981
sI37
(dp6025
sI38
(dp6026
sI39
(dp6027
sI45
(dp6028
sI47
(dp6029
sI50
(dp6030
sI52
(dp6031
sI56
(dp6032
sI59
(dp6033
sI68
(dp6034
sI70
(dp6035
sI71
(dp6036
sI72
(dp6037
sI75
(dp6038
sI80
(dp6039
sI82
(dp6040
sI84
(dp6041
sI85
(dp6042
sI89
(dp6043
sI91
(dp6044
sI93
(dp6045
sI95
(dp6046
sI96
(dp6047
ssI34
(dp6048
I1
g5199
sI2
g5229
sI3
g5260
sI5
g5318
sI6
g5352
sI10
g5470
sI11
g5496
sI12
g5522
sI16
g5627
sI19
g5702
sI20
g5727
sI22
g5784
sI23
g5806
sI27
g5891
sI29
g5940
sI31
g5982
sI35
(dp6049
sI37
(dp6050
sI41
(dp6051
sI42
(dp6052
sI46
(dp6053
sI49
(dp6054
sI53
(dp6055
sI60
(dp6056
sI67
(dp6057
sI69
(dp6058
sI84
(dp6059
sI86
(dp6060
sI88
(dp6061
sI91
(dp6062
sI93
(dp6063
sI95
(dp6064
sI97
(dp6065
sI99
(dp6066
ssI35
(dp6067
I1
g5200
sI4
g5284
sI13
g5547
sI15
g5602
sI18
g5674
sI21
g5756
sI27
g5892
sI28
g5921
sI31
g5983
sI32
g6003
sI34
g6049
sI37
(dp6068
sI39
(dp6069
sI44
(dp6070
sI45
(dp6071
sI46
(dp6072
sI47
(dp6073
sI48
(dp6074
sI60
(dp6075
sI68
(dp6076
sI77
(dp6077
sI79
(dp6078
sI80
(dp6079
sI81
(dp6080
sI82
(dp6081
sI89
(dp6082
sI91
(dp6083
sI94
(dp6084
sI96
(dp6085
ssI36
(dp6086
I0
g5165
sI1
g5201
sI9
g5438
sI10
g5471
sI12
g5523
sI18
g5675
sI22
g5785
sI25
g5849
sI27
g5893
sI37
(dp6087
sI40
(dp6088
sI42
(dp6089
sI43
(dp6090
sI50
(dp6091
sI59
(dp6092
sI60
(dp6093
sI62
(dp6094
sI63
(dp6095
sI70
(dp6096
sI71
(dp6097
sI76
(dp6098
sI79
(dp6099
sI80
(dp6100
sI82
(dp6101
sI84
(dp6102
sI87
(dp6103
sI88
(dp6104
sI89
(dp6105
sI91
(dp6106
sI99
(dp6107
ssI37
(dp6108
I8
g5406
sI11
g5497
sI16
g5628
sI26
g5868
sI30
g5966
sI33
g6025
sI34
g6050
sI35
g6068
sI36
g6087
sI38
(dp6109
sI40
(dp6110
sI45
(dp6111
sI47
(dp6112
sI52
(dp6113
sI55
(dp6114
sI56
(dp6115
sI57
(dp6116
sI60
(dp6117
sI67
(dp6118
sI69
(dp6119
sI70
(dp6120
sI73
(dp6121
sI77
(dp6122
sI80
(dp6123
sI81
(dp6124
sI84
(dp6125
sI87
(dp6126
sI88
(dp6127
sI89
(dp6128
sI90
(dp6129
sI91
(dp6130
sI97
(dp6131
sI98
(dp6132
sI99
(dp6133
ssI38
(dp6134
I2
g5230
sI4
g5285
sI6
g5353
sI13
g5548
sI14
g5575
sI19
g5703
sI20
g5728
sI25
g5850
sI26
g5869
sI28
g5922
sI30
g5967
sI31
g5984
sI33
g6026
sI37
g6109
sI40
(dp6135
sI53
(dp6136
sI54
(dp6137
sI57
(dp6138
sI58
(dp6139
sI61
(dp6140
sI68
(dp6141
sI70
(dp6142
sI72
(dp6143
sI79
(dp6144
sI82
(dp6145
sI83
(dp6146
sI86
(dp6147
sI87
(dp6148
sI88
(dp6149
sI89
(dp6150
sI91
(dp6151
sI93
(dp6152
ssI39
(dp6153
I1
g5202
sI3
g5261
sI5
g5319
sI13
g5549
sI17
g5654
sI18
g5676
sI20
g5729
sI22
g5786
sI26
g5870
sI33
g6027
sI35
g6069
sI42
(dp6154
sI43
(dp6155
sI47
(dp6156
sI55
(dp6157
sI61
(dp6158
sI63
(dp6159
sI68
(dp6160
sI70
(dp6161
sI71
(dp6162
sI72
(dp6163
sI76
(dp6164
sI79
(dp6165
sI86
(dp6166
sI87
(dp6167
sI93
(dp6168
sI99
(dp6169
ssI40
(dp6170
I1
g5203
sI2
g5231
sI10
g5472
sI15
g5603
sI18
g5677
sI28
g5923
sI30
g5968
sI32
g6004
sI36
g6088
sI37
g6110
sI38
g6135
sI42
(dp6171
sI46
(dp6172
sI49
(dp6173
sI55
(dp6174
sI59
(dp6175
sI61
(dp6176
sI62
(dp6177
sI63
(dp6178
sI71
(dp6179
sI73
(dp6180
sI75
(dp6181
sI82
(dp6182
sI88
(dp6183
sI92
(dp6184
sI97
(dp6185
ssI41
(dp6186
I0
g5166
sI1
g5204
sI4
g5286
sI5
g5320
sI6
g5354
sI8
g5407
sI11
g5498
sI13
g5550
sI16
g5629
sI17
g5655
sI18
g5678
sI34
g6051
sI43
(dp6187
sI47
(dp6188
sI49
(dp6189
sI51
(dp6190
sI65
(dp6191
sI69
(dp6192
sI75
(dp6193
sI80
(dp6194
sI85
(dp6195
sI89
(dp6196
sI90
(dp6197
sI91
(dp6198
sI96
(dp6199
sI97
(dp6200
sI99
(dp6201
ssI42
(dp6202
I2
g5232
sI3
g5262
sI6
g5355
sI9
g5439
sI10
g5473
sI15
g5604
sI20
g5730
sI22
g5787
sI29
g5941
sI34
g6052
sI36
g6089
sI39
g6154
sI40
g6171
sI46
(dp6203
sI47
(dp6204
sI48
(dp6205
sI50
(dp6206
sI51
(dp6207
sI55
(dp6208
sI56
(dp6209
sI63
(dp6210
sI68
(dp6211
sI73
(dp6212
sI74
(dp6213
sI77
(dp6214
sI79
(dp6215
sI80
(dp6216
sI86
(dp6217
sI89
(dp6218
sI92
(dp6219
sI95
(dp6220
ssI43
(dp6221
I1
g5205
sI4
g5287
sI6
g5356
sI9
g5440
sI15
g5605
sI16
g5630
sI22
g5788
sI23
g5807
sI24
g5828
sI27
g5894
sI28
g5924
sI36
g6090
sI39
g6155
sI41
g6187
sI48
(dp6222
sI49
(dp6223
sI67
(dp6224
sI73
(dp6225
sI74
(dp6226
sI75
(dp6227
sI77
(dp6228
sI79
(dp6229
sI85
(dp6230
sI87
(dp6231
sI90
(dp6232
sI93
(dp6233
sI94
(dp6234
sI97
(dp6235
sI99
(dp6236
ssI44
(dp6237
I0
g5167
sI1
g5206
sI8
g5408
sI14
g5576
sI25
g5851
sI26
g5871
sI28
g5925
sI29
g5942
sI35
g6070
sI47
(dp6238
sI48
(dp6239
sI49
(dp6240
sI53
(dp6241
sI65
(dp6242
sI76
(dp6243
sI86
(dp6244
sI89
(dp6245
sI92
(dp6246
sI94
(dp6247
sI97
(dp6248
sI98
(dp6249
sI99
(dp6250
ssI45
(dp6251
I0
g5168
sI1
g5207
sI6
g5357
sI9
g5441
sI11
g5499
sI14
g5577
sI15
g5606
sI16
g5631
sI17
g5656
sI20
g5731
sI22
g5789
sI26
g5872
sI29
g5943
sI33
g6028
sI35
g6071
sI37
g6111
sI50
(dp6252
sI51
(dp6253
sI54
(dp6254
sI55
(dp6255
sI57
(dp6256
sI61
(dp6257
sI66
(dp6258
sI68
(dp6259
sI69
(dp6260
sI73
(dp6261
sI74
(dp6262
sI79
(dp6263
sI80
(dp6264
sI86
(dp6265
sI91
(dp6266
sI92
(dp6267
sI93
(dp6268
sI95
(dp6269
sI96
(dp6270
ssI46
(dp6271
I1
g5208
sI8
g5409
sI13
g5551
sI16
g5632
sI18
g5679
sI23
g5808
sI29
g5944
sI34
g6053
sI35
g6072
sI40
g6172
sI42
g6203
sI50
(dp6272
sI51
(dp6273
sI57
(dp6274
sI62
(dp6275
sI64
(dp6276
sI65
(dp6277
sI66
(dp6278
sI68
(dp6279
sI72
(dp6280
sI76
(dp6281
sI80
(dp6282
sI83
(dp6283
sI86
(dp6284
sI90
(dp6285
ssI47
(dp6286
I1
g5209
sI4
g5288
sI5
g5321
sI8
g5410
sI9
g5442
sI11
g5500
sI16
g5633
sI19
g5704
sI20
g5732
sI22
g5790
sI23
g5809
sI24
g5829
sI27
g5895
sI33
g6029
sI35
g6073
sI37
g6112
sI39
g6156
sI41
g6188
sI42
g6204
sI44
g6238
sI55
(dp6287
sI58
(dp6288
sI64
(dp6289
sI65
(dp6290
sI66
(dp6291
sI68
(dp6292
sI69
(dp6293
sI72
(dp6294
sI74
(dp6295
sI77
(dp6296
sI78
(dp6297
sI80
(dp6298
sI83
(dp6299
sI93
(dp6300
sI96
(dp6301
ssI48
(dp6302
I32
g6005
sI98
(dp6303
sI3
g5263
sI69
(dp6304
sI81
(dp6305
sI42
g6205
sI11
g5501
sI44
g6239
sI79
(dp6306
sI16
g5634
sI43
g6222
sI82
(dp6307
sI35
g6074
sI90
(dp6308
sI55
(dp6309
sI26
g5873
sI27
g5896
sI58
(dp6310
sI31
g5985
ssI49
(dp6311
I0
g5169
sI2
g5233
sI3
g5264
sI4
g5289
sI10
g5474
sI16
g5635
sI21
g5757
sI31
g5986
sI32
g6006
sI34
g6054
sI40
g6173
sI41
g6189
sI43
g6223
sI44
g6240
sI52
(dp6312
sI54
(dp6313
sI55
(dp6314
sI61
(dp6315
sI65
(dp6316
sI68
(dp6317
sI70
(dp6318
sI71
(dp6319
sI74
(dp6320
sI75
(dp6321
sI79
(dp6322
sI81
(dp6323
sI89
(dp6324
sI96
(dp6325
ssI50
(dp6326
I0
g5170
sI1
g5210
sI2
g5234
sI5
g5322
sI6
g5358
sI7
g5378
sI10
g5475
sI15
g5607
sI16
g5636
sI18
g5680
sI20
g5733
sI21
g5758
sI26
g5874
sI28
g5926
sI32
g6007
sI33
g6030
sI36
g6091
sI42
g6206
sI45
g6252
sI46
g6272
sI55
(dp6327
sI56
(dp6328
sI57
(dp6329
sI60
(dp6330
sI66
(dp6331
sI67
(dp6332
sI69
(dp6333
sI76
(dp6334
sI80
(dp6335
sI81
(dp6336
sI82
(dp6337
sI83
(dp6338
sI86
(dp6339
sI96
(dp6340
sI97
(dp6341
sI98
(dp6342
sI99
(dp6343
ssI51
(dp6344
I5
g5323
sI7
g5379
sI8
g5411
sI15
g5608
sI24
g5830
sI28
g5927
sI29
g5945
sI31
g5987
sI41
g6190
sI42
g6207
sI45
g6253
sI46
g6273
sI52
(dp6345
sI62
(dp6346
sI63
(dp6347
sI64
(dp6348
sI68
(dp6349
sI79
(dp6350
sI80
(dp6351
sI81
(dp6352
sI85
(dp6353
sI87
(dp6354
sI95
(dp6355
sI98
(dp6356
sI99
(dp6357
ssI52
(dp6358
I14
g5578
sI18
g5681
sI20
g5734
sI28
g5928
sI31
g5988
sI33
g6031
sI37
g6113
sI49
g6312
sI51
g6345
sI54
(dp6359
sI58
(dp6360
sI62
(dp6361
sI64
(dp6362
sI65
(dp6363
sI66
(dp6364
sI73
(dp6365
sI74
(dp6366
sI76
(dp6367
sI77
(dp6368
sI79
(dp6369
sI81
(dp6370
sI84
(dp6371
sI85
(dp6372
sI99
(dp6373
ssI53
(dp6374
I1
g5211
sI3
g5265
sI4
g5290
sI9
g5443
sI12
g5524
sI14
g5579
sI17
g5657
sI18
g5682
sI21
g5759
sI25
g5852
sI26
g5875
sI28
g5929
sI30
g5969
sI31
g5989
sI34
g6055
sI38
g6136
sI44
g6241
sI55
(dp6375
sI56
(dp6376
sI57
(dp6377
sI60
(dp6378
sI63
(dp6379
sI64
(dp6380
sI65
(dp6381
sI68
(dp6382
sI69
(dp6383
sI75
(dp6384
sI77
(dp6385
sI81
(dp6386
sI82
(dp6387
sI87
(dp6388
sI90
(dp6389
sI91
(dp6390
sI92
(dp6391
sI94
(dp6392
sI96
(dp6393
sI99
(dp6394
ssI54
(dp6395
I1
g5212
sI4
g5291
sI9
g5444
sI10
g5476
sI13
g5552
sI16
g5637
sI18
g5683
sI21
g5760
sI22
g5791
sI25
g5853
sI28
g5930
sI30
g5970
sI31
g5990
sI38
g6137
sI45
g6254
sI49
g6313
sI52
g6359
sI64
(dp6396
sI68
(dp6397
sI72
(dp6398
sI73
(dp6399
sI80
(dp6400
sI81
(dp6401
sI82
(dp6402
sI87
(dp6403
sI89
(dp6404
sI90
(dp6405
sI92
(dp6406
sI94
(dp6407
sI96
(dp6408
sI97
(dp6409
sI99
(dp6410
ssI55
(dp6411
I0
g5171
sI1
g5213
sI3
g5266
sI4
g5292
sI5
g5324
sI6
g5359
sI8
g5412
sI10
g5477
sI12
g5525
sI14
g5580
sI19
g5705
sI21
g5761
sI23
g5810
sI26
g5876
sI30
g5971
sI37
g6114
sI39
g6157
sI40
g6174
sI42
g6208
sI45
g6255
sI47
g6287
sI48
g6309
sI49
g6314
sI50
g6327
sI53
g6375
sI56
(dp6412
sI58
(dp6413
sI59
(dp6414
sI64
(dp6415
sI66
(dp6416
sI68
(dp6417
sI69
(dp6418
sI70
(dp6419
sI73
(dp6420
sI74
(dp6421
sI76
(dp6422
sI79
(dp6423
sI80
(dp6424
sI86
(dp6425
sI94
(dp6426
sI99
(dp6427
ssI56
(dp6428
I0
g5172
sI1
g5214
sI5
g5325
sI9
g5445
sI11
g5502
sI15
g5609
sI21
g5762
sI24
g5831
sI25
g5854
sI27
g5897
sI29
g5946
sI30
g5972
sI31
g5991
sI32
g6008
sI33
g6032
sI37
g6115
sI42
g6209
sI50
g6328
sI53
g6376
sI55
g6412
sI57
(dp6429
sI58
(dp6430
sI70
(dp6431
sI73
(dp6432
sI76
(dp6433
sI78
(dp6434
sI79
(dp6435
sI86
(dp6436
sI87
(dp6437
sI89
(dp6438
sI92
(dp6439
ssI57
(dp6440
I3
g5267
sI4
g5293
sI6
g5360
sI12
g5526
sI13
g5553
sI18
g5684
sI19
g5706
sI22
g5792
sI23
g5811
sI27
g5898
sI29
g5947
sI32
g6009
sI37
g6116
sI38
g6138
sI45
g6256
sI46
g6274
sI50
g6329
sI53
g6377
sI56
g6429
sI65
(dp6441
sI70
(dp6442
sI79
(dp6443
sI81
(dp6444
sI87
(dp6445
sI96
(dp6446
sI98
(dp6447
ssI58
(dp6448
I0
g5173
sI6
g5361
sI8
g5413
sI9
g5446
sI12
g5527
sI15
g5610
sI17
g5658
sI20
g5735
sI21
g5763
sI23
g5812
sI24
g5832
sI27
g5899
sI38
g6139
sI47
g6288
sI48
g6310
sI52
g6360
sI55
g6413
sI56
g6430
sI61
(dp6449
sI68
(dp6450
sI70
(dp6451
sI72
(dp6452
sI79
(dp6453
sI81
(dp6454
sI85
(dp6455
sI90
(dp6456
sI91
(dp6457
sI93
(dp6458
sI95
(dp6459
sI97
(dp6460
ssI59
(dp6461
I1
g5215
sI2
g5235
sI14
g5581
sI19
g5707
sI26
g5877
sI29
g5948
sI31
g5992
sI32
g6010
sI33
g6033
sI36
g6092
sI40
g6175
sI55
g6414
sI68
(dp6462
sI73
(dp6463
sI78
(dp6464
sI80
(dp6465
sI82
(dp6466
sI84
(dp6467
sI85
(dp6468
sI88
(dp6469
sI91
(dp6470
sI96
(dp6471
sI97
(dp6472
ssI60
(dp6473
I0
g5174
sI7
g5380
sI16
g5638
sI20
g5736
sI22
g5793
sI25
g5855
sI27
g5900
sI34
g6056
sI35
g6075
sI36
g6093
sI37
g6117
sI50
g6330
sI53
g6378
sI62
(dp6474
sI67
(dp6475
sI68
(dp6476
sI75
(dp6477
sI79
(dp6478
sI80
(dp6479
sI82
(dp6480
sI85
(dp6481
sI89
(dp6482
sI91
(dp6483
sI94
(dp6484
sI97
(dp6485
sI99
(dp6486
ssI61
(dp6487
I0
g5175
sI8
g5414
sI9
g5447
sI19
g5708
sI20
g5737
sI22
g5794
sI23
g5813
sI27
g5901
sI29
g5949
sI30
g5973
sI38
g6140
sI39
g6158
sI40
g6176
sI45
g6257
sI49
g6315
sI58
g6449
sI64
(dp6488
sI65
(dp6489
sI67
(dp6490
sI71
(dp6491
sI77
(dp6492
sI82
(dp6493
sI84
(dp6494
sI85
(dp6495
sI88
(dp6496
sI97
(dp6497
sI99
(dp6498
ssI62
(dp6499
I5
g5326
sI9
g5448
sI12
g5528
sI14
g5582
sI19
g5709
sI22
g5795
sI27
g5902
sI29
g5950
sI31
g5993
sI36
g6094
sI40
g6177
sI46
g6275
sI51
g6346
sI52
g6361
sI60
g6474
sI64
(dp6500
sI69
(dp6501
sI71
(dp6502
sI77
(dp6503
sI80
(dp6504
sI90
(dp6505
sI93
(dp6506
sI95
(dp6507
sI96
(dp6508
ssI63
(dp6509
I7
g5381
sI10
g5478
sI12
g5529
sI13
g5554
sI14
g5583
sI16
g5639
sI17
g5659
sI18
g5685
sI26
g5878
sI27
g5903
sI29
g5951
sI30
g5974
sI36
g6095
sI39
g6159
sI40
g6178
sI42
g6210
sI51
g6347
sI53
g6379
sI67
(dp6510
sI72
(dp6511
sI77
(dp6512
sI79
(dp6513
sI81
(dp6514
sI84
(dp6515
sI91
(dp6516
sI94
(dp6517
sI96
(dp6518
ssI64
(dp6519
I0
g5176
sI2
g5236
sI4
g5294
sI5
g5327
sI9
g5449
sI15
g5611
sI16
g5640
sI19
g5710
sI24
g5833
sI25
g5856
sI26
g5879
sI27
g5904
sI28
g5931
sI31
g5994
sI46
g6276
sI47
g6289
sI51
g6348
sI52
g6362
sI53
g6380
sI54
g6396
sI55
g6415
sI61
g6488
sI62
g6500
sI68
(dp6520
sI70
(dp6521
sI71
(dp6522
sI74
(dp6523
sI75
(dp6524
sI80
(dp6525
sI83
(dp6526
sI85
(dp6527
sI87
(dp6528
sI92
(dp6529
sI95
(dp6530
sI96
(dp6531
sI97
(dp6532
sI98
(dp6533
sI99
(dp6534
ssI65
(dp6535
I2
g5237
sI4
g5295
sI8
g5415
sI9
g5450
sI15
g5612
sI17
g5660
sI18
g5686
sI19
g5711
sI23
g5814
sI25
g5857
sI30
g5975
sI41
g6191
sI44
g6242
sI46
g6277
sI47
g6290
sI49
g6316
sI52
g6363
sI53
g6381
sI57
g6441
sI61
g6489
sI67
(dp6536
sI68
(dp6537
sI69
(dp6538
sI74
(dp6539
sI82
(dp6540
sI83
(dp6541
sI85
(dp6542
sI90
(dp6543
sI91
(dp6544
sI93
(dp6545
sI94
(dp6546
sI98
(dp6547
ssI66
(dp6548
I32
g6011
sI91
(dp6549
sI5
g5328
sI47
g6291
sI9
g5451
sI79
(dp6550
sI46
g6278
sI45
g6258
sI14
g5584
sI15
g5613
sI80
(dp6551
sI50
g6331
sI19
g5712
sI52
g6364
sI21
g5764
sI73
(dp6552
sI55
g6416
sI27
g5905
sI69
(dp6553
ssI67
(dp6554
I1
g5216
sI5
g5329
sI13
g5555
sI19
g5713
sI23
g5815
sI24
g5834
sI31
g5995
sI32
g6012
sI34
g6057
sI37
g6118
sI43
g6224
sI50
g6332
sI60
g6475
sI61
g6490
sI63
g6510
sI65
g6536
sI68
(dp6555
sI69
(dp6556
sI71
(dp6557
sI74
(dp6558
sI75
(dp6559
sI76
(dp6560
sI81
(dp6561
sI82
(dp6562
sI85
(dp6563
sI86
(dp6564
sI87
(dp6565
sI88
(dp6566
sI89
(dp6567
sI90
(dp6568
sI94
(dp6569
sI99
(dp6570
ssI68
(dp6571
I1
g5217
sI2
g5238
sI3
g5268
sI5
g5330
sI6
g5362
sI7
g5382
sI11
g5503
sI13
g5556
sI14
g5585
sI16
g5641
sI17
g5661
sI21
g5765
sI22
g5796
sI24
g5835
sI28
g5932
sI29
g5952
sI30
g5976
sI33
g6034
sI35
g6076
sI38
g6141
sI39
g6160
sI42
g6211
sI45
g6259
sI46
g6279
sI47
g6292
sI49
g6317
sI51
g6349
sI53
g6382
sI54
g6397
sI55
g6417
sI58
g6450
sI59
g6462
sI60
g6476
sI64
g6520
sI65
g6537
sI67
g6555
sI69
(dp6572
sI70
(dp6573
sI72
(dp6574
sI73
(dp6575
sI78
(dp6576
sI81
(dp6577
sI84
(dp6578
sI89
(dp6579
ssI69
(dp6580
I2
g5239
sI3
g5269
sI5
g5331
sI10
g5479
sI11
g5504
sI24
g5836
sI25
g5858
sI27
g5906
sI34
g6058
sI37
g6119
sI41
g6192
sI45
g6260
sI47
g6293
sI48
g6304
sI50
g6333
sI53
g6383
sI55
g6418
sI62
g6501
sI65
g6538
sI66
g6553
sI67
g6556
sI68
g6572
sI72
(dp6581
sI75
(dp6582
sI78
(dp6583
sI79
(dp6584
sI80
(dp6585
sI84
(dp6586
sI85
(dp6587
sI86
(dp6588
sI88
(dp6589
sI91
(dp6590
ssI70
(dp6591
I2
g5240
sI3
g5270
sI4
g5296
sI7
g5383
sI8
g5416
sI13
g5557
sI16
g5642
sI18
g5687
sI21
g5766
sI23
g5816
sI27
g5907
sI33
g6035
sI36
g6096
sI37
g6120
sI38
g6142
sI39
g6161
sI49
g6318
sI55
g6419
sI56
g6431
sI57
g6442
sI58
g6451
sI64
g6521
sI68
g6573
sI71
(dp6592
sI75
(dp6593
sI84
(dp6594
sI86
(dp6595
sI88
(dp6596
sI91
(dp6597
sI95
(dp6598
sI96
(dp6599
ssI71
(dp6600
I0
g5177
sI32
g6013
sI3
g5271
sI36
g6097
sI33
g6036
sI70
g6592
sI7
g5384
sI40
g6179
sI64
g6522
sI97
(dp6601
sI39
g6162
sI13
g5558
sI78
(dp6602
sI49
g6319
sI67
g6557
sI62
g6502
sI86
(dp6603
sI88
(dp6604
sI61
g6491
sI30
g5977
ssI72
(dp6605
I33
g6037
sI4
g5297
sI69
g6581
sI38
g6143
sI7
g5385
sI39
g6163
sI76
(dp6606
sI46
g6280
sI47
g6294
sI80
(dp6607
sI18
g5688
sI20
g5738
sI54
g6398
sI23
g5817
sI24
g5837
sI68
g6574
sI58
g6452
sI91
(dp6608
sI86
(dp6609
sI63
g6511
ssI73
(dp6610
I5
g5332
sI8
g5417
sI9
g5452
sI11
g5505
sI12
g5530
sI14
g5586
sI16
g5643
sI17
g5662
sI18
g5689
sI20
g5739
sI21
g5767
sI22
g5797
sI27
g5908
sI37
g6121
sI40
g6180
sI42
g6212
sI43
g6225
sI45
g6261
sI52
g6365
sI54
g6399
sI55
g6420
sI56
g6432
sI59
g6463
sI66
g6552
sI68
g6575
sI74
(dp6611
sI77
(dp6612
sI79
(dp6613
sI84
(dp6614
sI89
(dp6615
sI92
(dp6616
sI96
(dp6617
ssI74
(dp6618
I0
g5178
sI4
g5298
sI8
g5418
sI12
g5531
sI18
g5690
sI20
g5740
sI21
g5768
sI32
g6014
sI42
g6213
sI43
g6226
sI45
g6262
sI47
g6295
sI49
g6320
sI52
g6366
sI55
g6421
sI64
g6523
sI65
g6539
sI67
g6558
sI73
g6611
sI76
(dp6619
sI80
(dp6620
sI81
(dp6621
sI83
(dp6622
sI84
(dp6623
sI85
(dp6624
sI86
(dp6625
sI87
(dp6626
sI90
(dp6627
sI92
(dp6628
sI93
(dp6629
sI96
(dp6630
sI97
(dp6631
sI99
(dp6632
ssI75
(dp6633
I2
g5241
sI7
g5386
sI9
g5453
sI11
g5506
sI14
g5587
sI19
g5714
sI22
g5798
sI23
g5818
sI24
g5838
sI32
g6015
sI33
g6038
sI40
g6181
sI41
g6193
sI43
g6227
sI49
g6321
sI53
g6384
sI60
g6477
sI64
g6524
sI67
g6559
sI69
g6582
sI70
g6593
sI81
(dp6634
sI86
(dp6635
sI89
(dp6636
sI96
(dp6637
ssI76
(dp6638
I3
g5272
sI7
g5387
sI16
g5644
sI19
g5715
sI21
g5769
sI22
g5799
sI23
g5819
sI27
g5909
sI36
g6098
sI39
g6164
sI44
g6243
sI46
g6281
sI50
g6334
sI52
g6367
sI55
g6422
sI56
g6433
sI67
g6560
sI72
g6606
sI74
g6619
sI81
(dp6639
sI83
(dp6640
sI84
(dp6641
sI86
(dp6642
sI87
(dp6643
sI90
(dp6644
sI92
(dp6645
sI94
(dp6646
sI99
(dp6647
ssI77
(dp6648
I5
g5333
sI6
g5363
sI8
g5419
sI11
g5507
sI15
g5614
sI16
g5645
sI18
g5691
sI21
g5770
sI26
g5880
sI27
g5910
sI28
g5933
sI29
g5953
sI35
g6077
sI37
g6122
sI42
g6214
sI43
g6228
sI47
g6296
sI52
g6368
sI53
g6385
sI61
g6492
sI62
g6503
sI63
g6512
sI73
g6612
sI80
(dp6649
sI87
(dp6650
sI90
(dp6651
sI97
(dp6652
ssI78
(dp6653
I91
(dp6654
sI4
g5299
sI69
g6583
sI81
(dp6655
sI7
g5388
sI10
g5480
sI71
g6602
sI13
g5559
sI47
g6297
sI56
g6434
sI82
(dp6656
sI19
g5716
sI20
g5741
sI21
g5771
sI86
(dp6657
sI24
g5839
sI68
g6576
sI59
g6464
sI29
g5954
sI88
(dp6658
sI95
(dp6659
ssI79
(dp6660
I7
g5389
sI11
g5508
sI12
g5532
sI14
g5588
sI17
g5663
sI26
g5881
sI35
g6078
sI36
g6099
sI38
g6144
sI39
g6165
sI42
g6215
sI43
g6229
sI45
g6263
sI48
g6306
sI49
g6322
sI51
g6350
sI52
g6369
sI55
g6423
sI56
g6435
sI57
g6443
sI58
g6453
sI60
g6478
sI63
g6513
sI66
g6550
sI69
g6584
sI73
g6613
sI80
(dp6661
sI81
(dp6662
sI85
(dp6663
sI86
(dp6664
sI89
(dp6665
sI91
(dp6666
sI92
(dp6667
ssI80
(dp6668
I4
g5300
sI8
g5420
sI15
g5615
sI17
g5664
sI19
g5717
sI20
g5742
sI21
g5772
sI22
g5800
sI26
g5882
sI28
g5934
sI29
g5955
sI33
g6039
sI35
g6079
sI36
g6100
sI37
g6123
sI41
g6194
sI42
g6216
sI45
g6264
sI46
g6282
sI47
g6298
sI50
g6335
sI51
g6351
sI54
g6400
sI55
g6424
sI59
g6465
sI60
g6479
sI62
g6504
sI64
g6525
sI66
g6551
sI69
g6585
sI72
g6607
sI74
g6620
sI77
g6649
sI79
g6661
sI89
(dp6669
sI92
(dp6670
sI94
(dp6671
sI99
(dp6672
ssI81
(dp6673
I5
g5334
sI13
g5560
sI14
g5589
sI20
g5743
sI21
g5773
sI24
g5840
sI27
g5911
sI35
g6080
sI37
g6124
sI48
g6305
sI49
g6323
sI50
g6336
sI51
g6352
sI52
g6370
sI53
g6386
sI54
g6401
sI57
g6444
sI58
g6454
sI63
g6514
sI67
g6561
sI68
g6577
sI74
g6621
sI75
g6634
sI76
g6639
sI78
g6655
sI79
g6662
sI82
(dp6674
ssI82
(dp6675
I2
g5242
sI6
g5364
sI12
g5533
sI17
g5665
sI18
g5692
sI26
g5883
sI28
g5935
sI31
g5996
sI32
g6016
sI33
g6040
sI35
g6081
sI36
g6101
sI38
g6145
sI40
g6182
sI48
g6307
sI50
g6337
sI53
g6387
sI54
g6402
sI59
g6466
sI60
g6480
sI61
g6493
sI65
g6540
sI67
g6562
sI78
g6656
sI81
g6674
sI88
(dp6676
sI89
(dp6677
sI90
(dp6678
sI91
(dp6679
sI93
(dp6680
ssI83
(dp6681
I7
g5390
sI8
g5421
sI14
g5590
sI16
g5646
sI18
g5693
sI23
g5820
sI27
g5912
sI29
g5956
sI32
g6017
sI38
g6146
sI46
g6283
sI47
g6299
sI50
g6338
sI64
g6526
sI65
g6541
sI74
g6622
sI76
g6640
sI85
(dp6682
sI87
(dp6683
sI89
(dp6684
sI94
(dp6685
sI96
(dp6686
sI97
(dp6687
sI98
(dp6688
ssI84
(dp6689
I0
g5179
sI4
g5301
sI9
g5454
sI12
g5534
sI17
g5666
sI20
g5744
sI21
g5774
sI27
g5913
sI32
g6018
sI33
g6041
sI34
g6059
sI36
g6102
sI37
g6125
sI52
g6371
sI59
g6467
sI61
g6494
sI63
g6515
sI68
g6578
sI69
g6586
sI70
g6594
sI73
g6614
sI74
g6623
sI76
g6641
sI87
(dp6690
sI88
(dp6691
sI91
(dp6692
sI92
(dp6693
sI95
(dp6694
sI99
(dp6695
ssI85
(dp6696
I2
g5243
sI4
g5302
sI5
g5335
sI10
g5481
sI12
g5535
sI13
g5561
sI15
g5616
sI20
g5745
sI32
g6019
sI33
g6042
sI41
g6195
sI43
g6230
sI51
g6353
sI52
g6372
sI58
g6455
sI59
g6468
sI60
g6481
sI61
g6495
sI64
g6527
sI65
g6542
sI67
g6563
sI69
g6587
sI74
g6624
sI79
g6663
sI83
g6682
sI87
(dp6697
sI91
(dp6698
sI92
(dp6699
sI94
(dp6700
sI98
(dp6701
sI99
(dp6702
ssI86
(dp6703
I1
g5218
sI2
g5244
sI3
g5273
sI4
g5303
sI8
g5422
sI9
g5455
sI12
g5536
sI13
g5562
sI18
g5694
sI19
g5718
sI29
g5957
sI32
g6020
sI34
g6060
sI38
g6147
sI39
g6166
sI42
g6217
sI44
g6244
sI45
g6265
sI46
g6284
sI50
g6339
sI55
g6425
sI56
g6436
sI67
g6564
sI69
g6588
sI70
g6595
sI71
g6603
sI72
g6609
sI74
g6625
sI75
g6635
sI76
g6642
sI78
g6657
sI79
g6664
sI87
(dp6704
sI89
(dp6705
sI90
(dp6706
sI92
(dp6707
sI93
(dp6708
sI98
(dp6709
ssI87
(dp6710
I4
g5304
sI5
g5336
sI7
g5391
sI8
g5423
sI13
g5563
sI14
g5591
sI20
g5746
sI25
g5859
sI27
g5914
sI29
g5958
sI36
g6103
sI37
g6126
sI38
g6148
sI39
g6167
sI43
g6231
sI51
g6354
sI53
g6388
sI54
g6403
sI56
g6437
sI57
g6445
sI64
g6528
sI67
g6565
sI74
g6626
sI76
g6643
sI77
g6650
sI83
g6683
sI84
g6690
sI85
g6697
sI86
g6704
sI88
(dp6711
sI90
(dp6712
sI91
(dp6713
sI92
(dp6714
sI93
(dp6715
sI94
(dp6716
sI97
(dp6717
sI99
(dp6718
ssI88
(dp6719
I2
g5245
sI8
g5424
sI9
g5456
sI16
g5647
sI24
g5841
sI26
g5884
sI29
g5959
sI30
g5978
sI34
g6061
sI36
g6104
sI37
g6127
sI38
g6149
sI40
g6183
sI59
g6469
sI61
g6496
sI67
g6566
sI69
g6589
sI70
g6596
sI71
g6604
sI78
g6658
sI82
g6676
sI84
g6691
sI87
g6711
sI93
(dp6720
sI94
(dp6721
ssI89
(dp6722
I7
g5392
sI8
g5425
sI10
g5482
sI11
g5509
sI18
g5695
sI19
g5719
sI20
g5747
sI23
g5821
sI24
g5842
sI25
g5860
sI31
g5997
sI32
g6021
sI33
g6043
sI35
g6082
sI36
g6105
sI37
g6128
sI38
g6150
sI41
g6196
sI42
g6218
sI44
g6245
sI49
g6324
sI54
g6404
sI56
g6438
sI60
g6482
sI67
g6567
sI68
g6579
sI73
g6615
sI75
g6636
sI79
g6665
sI80
g6669
sI82
g6677
sI83
g6684
sI86
g6705
sI95
(dp6723
sI98
(dp6724
ssI90
(dp6725
I3
g5274
sI5
g5337
sI7
g5393
sI9
g5457
sI10
g5483
sI11
g5510
sI25
g5861
sI26
g5885
sI27
g5915
sI37
g6129
sI41
g6197
sI43
g6232
sI46
g6285
sI48
g6308
sI53
g6389
sI54
g6405
sI58
g6456
sI62
g6505
sI65
g6543
sI67
g6568
sI74
g6627
sI76
g6644
sI77
g6651
sI82
g6678
sI86
g6706
sI87
g6712
sI96
(dp6726
sI99
(dp6727
ssI91
(dp6728
I2
g5246
sI3
g5275
sI7
g5394
sI10
g5484
sI11
g5511
sI13
g5564
sI14
g5592
sI22
g5801
sI23
g5822
sI33
g6044
sI34
g6062
sI35
g6083
sI36
g6106
sI37
g6130
sI38
g6151
sI41
g6198
sI45
g6266
sI53
g6390
sI58
g6457
sI59
g6470
sI60
g6483
sI63
g6516
sI65
g6544
sI66
g6549
sI69
g6590
sI70
g6597
sI72
g6608
sI78
g6654
sI79
g6666
sI82
g6679
sI84
g6692
sI85
g6698
sI87
g6713
sI93
(dp6729
sI94
(dp6730
ssI92
(dp6731
I0
g5180
sI4
g5305
sI5
g5338
sI6
g5365
sI11
g5512
sI14
g5593
sI15
g5617
sI17
g5667
sI19
g5720
sI25
g5862
sI31
g5998
sI40
g6184
sI42
g6219
sI44
g6246
sI45
g6267
sI53
g6391
sI54
g6406
sI56
g6439
sI64
g6529
sI73
g6616
sI74
g6628
sI76
g6645
sI79
g6667
sI80
g6670
sI84
g6693
sI85
g6699
sI86
g6707
sI87
g6714
sI93
(dp6732
sI95
(dp6733
sI97
(dp6734
sI99
(dp6735
ssI93
(dp6736
I0
g5181
sI1
g5219
sI2
g5247
sI6
g5366
sI8
g5426
sI12
g5537
sI15
g5618
sI16
g5648
sI20
g5748
sI21
g5775
sI23
g5823
sI24
g5843
sI26
g5886
sI28
g5936
sI31
g5999
sI33
g6045
sI34
g6063
sI38
g6152
sI39
g6168
sI43
g6233
sI45
g6268
sI47
g6300
sI58
g6458
sI62
g6506
sI65
g6545
sI74
g6629
sI82
g6680
sI86
g6708
sI87
g6715
sI88
g6720
sI91
g6729
sI92
g6732
sI95
(dp6737
sI96
(dp6738
ssI94
(dp6739
I0
g5182
sI5
g5339
sI9
g5458
sI10
g5485
sI14
g5594
sI21
g5776
sI22
g5802
sI24
g5844
sI26
g5887
sI29
g5960
sI35
g6084
sI43
g6234
sI44
g6247
sI53
g6392
sI54
g6407
sI55
g6426
sI60
g6484
sI63
g6517
sI65
g6546
sI67
g6569
sI76
g6646
sI80
g6671
sI83
g6685
sI85
g6700
sI87
g6716
sI88
g6721
sI91
g6730
ssI95
(dp6740
I2
g5248
sI3
g5276
sI4
g5306
sI5
g5340
sI7
g5395
sI9
g5459
sI11
g5513
sI13
g5565
sI14
g5595
sI15
g5619
sI25
g5863
sI28
g5937
sI29
g5961
sI33
g6046
sI34
g6064
sI42
g6220
sI45
g6269
sI51
g6355
sI58
g6459
sI62
g6507
sI64
g6530
sI70
g6598
sI78
g6659
sI84
g6694
sI89
g6723
sI92
g6733
sI93
g6737
sI96
(dp6741
ssI96
(dp6742
I1
g5220
sI5
g5341
sI7
g5396
sI10
g5486
sI11
g5514
sI12
g5538
sI13
g5566
sI16
g5649
sI30
g5979
sI31
g6000
sI32
g6022
sI33
g6047
sI35
g6085
sI41
g6199
sI45
g6270
sI47
g6301
sI49
g6325
sI50
g6340
sI53
g6393
sI54
g6408
sI57
g6446
sI59
g6471
sI62
g6508
sI63
g6518
sI64
g6531
sI70
g6599
sI73
g6617
sI74
g6630
sI75
g6637
sI83
g6686
sI90
g6726
sI93
g6738
sI95
g6741
sI98
(dp6743
sI99
(dp6744
ssI97
(dp6745
I6
g5367
sI8
g5427
sI15
g5620
sI18
g5696
sI19
g5721
sI23
g5824
sI24
g5845
sI27
g5916
sI29
g5962
sI34
g6065
sI37
g6131
sI40
g6185
sI41
g6200
sI43
g6235
sI44
g6248
sI50
g6341
sI54
g6409
sI58
g6460
sI59
g6472
sI60
g6485
sI61
g6497
sI64
g6532
sI71
g6601
sI74
g6631
sI77
g6652
sI83
g6687
sI87
g6717
sI92
g6734
ssI98
(dp6746
I0
g5183
sI64
g6533
sI83
g6688
sI50
g6342
sI4
g5307
sI37
g6132
sI65
g6547
sI96
g6743
sI10
g5487
sI44
g6249
sI13
g5567
sI14
g5596
sI48
g6303
sI18
g5697
sI51
g6356
sI85
g6701
sI86
g6709
sI89
g6724
sI57
g6447
sI28
g5938
ssI99
(dp6747
I0
g5184
sI4
g5308
sI7
g5397
sI8
g5428
sI11
g5515
sI14
g5597
sI18
g5698
sI20
g5749
sI25
g5864
sI27
g5917
sI31
g6001
sI32
g6023
sI34
g6066
sI36
g6107
sI37
g6133
sI39
g6169
sI41
g6201
sI43
g6236
sI44
g6250
sI50
g6343
sI51
g6357
sI52
g6373
sI53
g6394
sI54
g6410
sI55
g6427
sI60
g6486
sI61
g6498
sI64
g6534
sI67
g6570
sI74
g6632
sI76
g6647
sI80
g6672
sI84
g6695
sI85
g6702
sI87
g6718
sI90
g6727
sI92
g6735
sI96
g6744
sssg1697
g5155
sbsI4
g0
(g8
g2
Ntp6748
Rp6749
(dp6750
g12
(dp6751
I0
(dp6752
sI1
(dp6753
sI2
(dp6754
sI3
(dp6755
sI4
(dp6756
sI5
(dp6757
sI6
(dp6758
sI7
(dp6759
sI8
(dp6760
sI9
(dp6761
sI10
(dp6762
sI11
(dp6763
sI12
(dp6764
sI13
(dp6765
sI14
(dp6766
sI15
(dp6767
sI16
(dp6768
sI17
(dp6769
sI18
(dp6770
sI19
(dp6771
sI20
(dp6772
sI21
(dp6773
sI22
(dp6774
sI23
(dp6775
sI24
(dp6776
sI25
(dp6777
sI26
(dp6778
sI27
(dp6779
sI28
(dp6780
sI29
(dp6781
sI30
(dp6782
sI31
(dp6783
sI32
(dp6784
sI33
(dp6785
sI34
(dp6786
sI35
(dp6787
sI36
(dp6788
sI37
(dp6789
sI38
(dp6790
sI39
(dp6791
sI40
(dp6792
sI41
(dp6793
sI42
(dp6794
sI43
(dp6795
sI44
(dp6796
sI45
(dp6797
sI46
(dp6798
sI47
(dp6799
sI48
(dp6800
sI49
(dp6801
sI50
(dp6802
sI51
(dp6803
sI52
(dp6804
sI53
(dp6805
sI54
(dp6806
sI55
(dp6807
sI56
(dp6808
sI57
(dp6809
sI58
(dp6810
sI59
(dp6811
sI60
(dp6812
sI61
(dp6813
sI62
(dp6814
sI63
(dp6815
sI64
(dp6816
sI65
(dp6817
sI66
(dp6818
sI67
(dp6819
sI68
(dp6820
sI69
(dp6821
sI70
(dp6822
sI71
(dp6823
sI72
(dp6824
sI73
(dp6825
sI74
(dp6826
sI75
(dp6827
sI76
(dp6828
sI77
(dp6829
sI78
(dp6830
sI79
(dp6831
sI80
(dp6832
sI81
(dp6833
sI82
(dp6834
sI83
(dp6835
sI84
(dp6836
sI85
(dp6837
sI86
(dp6838
sI87
(dp6839
sI88
(dp6840
sI89
(dp6841
sI90
(dp6842
sI91
(dp6843
sI92
(dp6844
sI93
(dp6845
sI94
(dp6846
sI95
(dp6847
sI96
(dp6848
sI97
(dp6849
sI98
(dp6850
sI99
(dp6851
ssg114
(dp6852
sg116
(dp6853
I0
(dp6854
I2
(dp6855
sI9
(dp6856
sI11
(dp6857
sI14
(dp6858
sI19
(dp6859
sI21
(dp6860
sI27
(dp6861
sI29
(dp6862
sI30
(dp6863
sI35
(dp6864
sI36
(dp6865
sI42
(dp6866
sI43
(dp6867
sI45
(dp6868
sI48
(dp6869
sI50
(dp6870
sI51
(dp6871
sI55
(dp6872
sI56
(dp6873
sI58
(dp6874
sI72
(dp6875
sI76
(dp6876
sI78
(dp6877
sI80
(dp6878
sI81
(dp6879
sI89
(dp6880
sI91
(dp6881
sI94
(dp6882
ssI1
(dp6883
I2
(dp6884
sI5
(dp6885
sI7
(dp6886
sI8
(dp6887
sI10
(dp6888
sI12
(dp6889
sI13
(dp6890
sI20
(dp6891
sI22
(dp6892
sI31
(dp6893
sI36
(dp6894
sI39
(dp6895
sI45
(dp6896
sI46
(dp6897
sI47
(dp6898
sI48
(dp6899
sI55
(dp6900
sI58
(dp6901
sI61
(dp6902
sI62
(dp6903
sI64
(dp6904
sI66
(dp6905
sI68
(dp6906
sI71
(dp6907
sI73
(dp6908
sI75
(dp6909
sI82
(dp6910
sI83
(dp6911
sI84
(dp6912
sI88
(dp6913
sI97
(dp6914
sI98
(dp6915
sI99
(dp6916
ssI2
(dp6917
I0
g6855
sI1
g6884
sI5
(dp6918
sI11
(dp6919
sI16
(dp6920
sI17
(dp6921
sI21
(dp6922
sI22
(dp6923
sI30
(dp6924
sI33
(dp6925
sI34
(dp6926
sI36
(dp6927
sI40
(dp6928
sI43
(dp6929
sI45
(dp6930
sI47
(dp6931
sI49
(dp6932
sI63
(dp6933
sI73
(dp6934
sI74
(dp6935
sI83
(dp6936
sI84
(dp6937
sI90
(dp6938
sI93
(dp6939
sI98
(dp6940
ssI3
(dp6941
I4
(dp6942
sI7
(dp6943
sI11
(dp6944
sI13
(dp6945
sI16
(dp6946
sI21
(dp6947
sI26
(dp6948
sI27
(dp6949
sI29
(dp6950
sI32
(dp6951
sI34
(dp6952
sI38
(dp6953
sI39
(dp6954
sI41
(dp6955
sI45
(dp6956
sI47
(dp6957
sI52
(dp6958
sI57
(dp6959
sI63
(dp6960
sI66
(dp6961
sI67
(dp6962
sI72
(dp6963
sI73
(dp6964
sI78
(dp6965
sI83
(dp6966
sI88
(dp6967
sI89
(dp6968
sI90
(dp6969
sI93
(dp6970
sI94
(dp6971
sI95
(dp6972
ssI4
(dp6973
I3
g6942
sI7
(dp6974
sI10
(dp6975
sI14
(dp6976
sI20
(dp6977
sI25
(dp6978
sI26
(dp6979
sI30
(dp6980
sI33
(dp6981
sI36
(dp6982
sI39
(dp6983
sI42
(dp6984
sI49
(dp6985
sI50
(dp6986
sI54
(dp6987
sI57
(dp6988
sI71
(dp6989
sI72
(dp6990
sI74
(dp6991
sI75
(dp6992
sI86
(dp6993
sI96
(dp6994
ssI5
(dp6995
I1
g6885
sI2
g6918
sI6
(dp6996
sI12
(dp6997
sI16
(dp6998
sI19
(dp6999
sI23
(dp7000
sI25
(dp7001
sI32
(dp7002
sI39
(dp7003
sI40
(dp7004
sI46
(dp7005
sI57
(dp7006
sI58
(dp7007
sI67
(dp7008
sI68
(dp7009
sI72
(dp7010
sI76
(dp7011
sI81
(dp7012
sI89
(dp7013
sI90
(dp7014
sI91
(dp7015
sI96
(dp7016
sI97
(dp7017
sI99
(dp7018
ssI6
(dp7019
I5
g6996
sI12
(dp7020
sI14
(dp7021
sI15
(dp7022
sI18
(dp7023
sI20
(dp7024
sI24
(dp7025
sI27
(dp7026
sI30
(dp7027
sI33
(dp7028
sI34
(dp7029
sI43
(dp7030
sI45
(dp7031
sI48
(dp7032
sI49
(dp7033
sI50
(dp7034
sI56
(dp7035
sI59
(dp7036
sI60
(dp7037
sI61
(dp7038
sI63
(dp7039
sI74
(dp7040
sI79
(dp7041
sI86
(dp7042
sI91
(dp7043
sI93
(dp7044
sI95
(dp7045
sI97
(dp7046
sI99
(dp7047
ssI7
(dp7048
I1
g6886
sI3
g6943
sI4
g6974
sI12
(dp7049
sI25
(dp7050
sI26
(dp7051
sI27
(dp7052
sI32
(dp7053
sI35
(dp7054
sI37
(dp7055
sI50
(dp7056
sI51
(dp7057
sI52
(dp7058
sI54
(dp7059
sI60
(dp7060
sI61
(dp7061
sI62
(dp7062
sI65
(dp7063
sI67
(dp7064
sI75
(dp7065
sI76
(dp7066
sI90
(dp7067
sI92
(dp7068
sI93
(dp7069
ssI8
(dp7070
I1
g6887
sI11
(dp7071
sI12
(dp7072
sI25
(dp7073
sI32
(dp7074
sI41
(dp7075
sI42
(dp7076
sI43
(dp7077
sI46
(dp7078
sI49
(dp7079
sI50
(dp7080
sI54
(dp7081
sI56
(dp7082
sI62
(dp7083
sI65
(dp7084
sI66
(dp7085
sI71
(dp7086
sI73
(dp7087
sI74
(dp7088
sI76
(dp7089
sI78
(dp7090
sI82
(dp7091
sI83
(dp7092
sI87
(dp7093
sI89
(dp7094
sI96
(dp7095
sI98
(dp7096
ssI9
(dp7097
I0
g6856
sI10
(dp7098
sI11
(dp7099
sI12
(dp7100
sI20
(dp7101
sI25
(dp7102
sI30
(dp7103
sI34
(dp7104
sI36
(dp7105
sI38
(dp7106
sI42
(dp7107
sI50
(dp7108
sI52
(dp7109
sI56
(dp7110
sI58
(dp7111
sI63
(dp7112
sI66
(dp7113
sI69
(dp7114
sI72
(dp7115
sI77
(dp7116
sI79
(dp7117
sI80
(dp7118
sI83
(dp7119
sI86
(dp7120
sI87
(dp7121
sI88
(dp7122
sI92
(dp7123
sI96
(dp7124
sI99
(dp7125
ssI10
(dp7126
I1
g6888
sI4
g6975
sI9
g7098
sI13
(dp7127
sI19
(dp7128
sI20
(dp7129
sI26
(dp7130
sI30
(dp7131
sI32
(dp7132
sI39
(dp7133
sI40
(dp7134
sI42
(dp7135
sI48
(dp7136
sI59
(dp7137
sI61
(dp7138
sI62
(dp7139
sI64
(dp7140
sI67
(dp7141
sI70
(dp7142
sI71
(dp7143
sI75
(dp7144
sI80
(dp7145
sI82
(dp7146
sI85
(dp7147
sI93
(dp7148
sI94
(dp7149
sI96
(dp7150
ssI11
(dp7151
I0
g6857
sI2
g6919
sI3
g6944
sI8
g7071
sI9
g7099
sI12
(dp7152
sI16
(dp7153
sI17
(dp7154
sI18
(dp7155
sI19
(dp7156
sI22
(dp7157
sI24
(dp7158
sI26
(dp7159
sI31
(dp7160
sI34
(dp7161
sI35
(dp7162
sI36
(dp7163
sI38
(dp7164
sI39
(dp7165
sI40
(dp7166
sI43
(dp7167
sI46
(dp7168
sI49
(dp7169
sI50
(dp7170
sI54
(dp7171
sI56
(dp7172
sI57
(dp7173
sI58
(dp7174
sI59
(dp7175
sI60
(dp7176
sI61
(dp7177
sI64
(dp7178
sI75
(dp7179
sI76
(dp7180
sI86
(dp7181
sI87
(dp7182
sI93
(dp7183
sI94
(dp7184
sI97
(dp7185
sI98
(dp7186
ssI12
(dp7187
I1
g6889
sI5
g6997
sI6
g7020
sI7
g7049
sI8
g7072
sI9
g7100
sI11
g7152
sI13
(dp7188
sI17
(dp7189
sI18
(dp7190
sI23
(dp7191
sI29
(dp7192
sI32
(dp7193
sI33
(dp7194
sI38
(dp7195
sI39
(dp7196
sI41
(dp7197
sI47
(dp7198
sI48
(dp7199
sI49
(dp7200
sI53
(dp7201
sI54
(dp7202
sI55
(dp7203
sI58
(dp7204
sI61
(dp7205
sI64
(dp7206
sI65
(dp7207
sI78
(dp7208
sI83
(dp7209
sI84
(dp7210
sI86
(dp7211
sI87
(dp7212
sI93
(dp7213
sI94
(dp7214
sI97
(dp7215
ssI13
(dp7216
I1
g6890
sI3
g6945
sI10
g7127
sI12
g7188
sI14
(dp7217
sI16
(dp7218
sI26
(dp7219
sI31
(dp7220
sI33
(dp7221
sI35
(dp7222
sI37
(dp7223
sI39
(dp7224
sI42
(dp7225
sI44
(dp7226
sI50
(dp7227
sI69
(dp7228
sI71
(dp7229
sI73
(dp7230
sI76
(dp7231
sI79
(dp7232
sI80
(dp7233
sI86
(dp7234
sI87
(dp7235
sI90
(dp7236
sI93
(dp7237
sI94
(dp7238
sI96
(dp7239
ssI14
(dp7240
I0
g6858
sI4
g6976
sI6
g7021
sI13
g7217
sI15
(dp7241
sI17
(dp7242
sI18
(dp7243
sI19
(dp7244
sI20
(dp7245
sI21
(dp7246
sI43
(dp7247
sI46
(dp7248
sI52
(dp7249
sI54
(dp7250
sI58
(dp7251
sI61
(dp7252
sI67
(dp7253
sI72
(dp7254
sI74
(dp7255
sI76
(dp7256
sI90
(dp7257
sI91
(dp7258
sI92
(dp7259
sI93
(dp7260
sI94
(dp7261
sI99
(dp7262
ssI15
(dp7263
I6
g7022
sI14
g7241
sI16
(dp7264
sI17
(dp7265
sI20
(dp7266
sI25
(dp7267
sI28
(dp7268
sI33
(dp7269
sI34
(dp7270
sI35
(dp7271
sI39
(dp7272
sI44
(dp7273
sI45
(dp7274
sI56
(dp7275
sI57
(dp7276
sI59
(dp7277
sI61
(dp7278
sI66
(dp7279
sI71
(dp7280
sI73
(dp7281
sI77
(dp7282
sI78
(dp7283
sI79
(dp7284
sI81
(dp7285
sI82
(dp7286
sI85
(dp7287
sI86
(dp7288
sI88
(dp7289
sI89
(dp7290
sI95
(dp7291
sI96
(dp7292
ssI16
(dp7293
I2
g6920
sI3
g6946
sI5
g6998
sI11
g7153
sI13
g7218
sI15
g7264
sI17
(dp7294
sI18
(dp7295
sI20
(dp7296
sI22
(dp7297
sI24
(dp7298
sI26
(dp7299
sI27
(dp7300
sI29
(dp7301
sI30
(dp7302
sI31
(dp7303
sI33
(dp7304
sI35
(dp7305
sI38
(dp7306
sI52
(dp7307
sI56
(dp7308
sI58
(dp7309
sI59
(dp7310
sI61
(dp7311
sI74
(dp7312
sI78
(dp7313
sI80
(dp7314
sI82
(dp7315
sI84
(dp7316
sI88
(dp7317
sI89
(dp7318
sI90
(dp7319
sI93
(dp7320
sI94
(dp7321
ssI17
(dp7322
I2
g6921
sI11
g7154
sI12
g7189
sI14
g7242
sI15
g7265
sI16
g7294
sI19
(dp7323
sI21
(dp7324
sI27
(dp7325
sI29
(dp7326
sI30
(dp7327
sI41
(dp7328
sI44
(dp7329
sI45
(dp7330
sI46
(dp7331
sI54
(dp7332
sI62
(dp7333
sI63
(dp7334
sI70
(dp7335
sI72
(dp7336
sI74
(dp7337
sI75
(dp7338
sI76
(dp7339
sI82
(dp7340
sI85
(dp7341
sI86
(dp7342
sI87
(dp7343
sI88
(dp7344
sI91
(dp7345
sI98
(dp7346
ssI18
(dp7347
I6
g7023
sI11
g7155
sI12
g7190
sI14
g7243
sI16
g7295
sI20
(dp7348
sI22
(dp7349
sI30
(dp7350
sI34
(dp7351
sI35
(dp7352
sI39
(dp7353
sI41
(dp7354
sI44
(dp7355
sI46
(dp7356
sI48
(dp7357
sI51
(dp7358
sI54
(dp7359
sI61
(dp7360
sI62
(dp7361
sI63
(dp7362
sI64
(dp7363
sI67
(dp7364
sI71
(dp7365
sI74
(dp7366
sI75
(dp7367
sI77
(dp7368
sI78
(dp7369
sI83
(dp7370
sI89
(dp7371
sI90
(dp7372
sI92
(dp7373
sI94
(dp7374
sI95
(dp7375
sI98
(dp7376
ssI19
(dp7377
I0
g6859
sI5
g6999
sI10
g7128
sI11
g7156
sI14
g7244
sI17
g7323
sI24
(dp7378
sI26
(dp7379
sI27
(dp7380
sI29
(dp7381
sI30
(dp7382
sI32
(dp7383
sI34
(dp7384
sI38
(dp7385
sI43
(dp7386
sI44
(dp7387
sI49
(dp7388
sI53
(dp7389
sI54
(dp7390
sI58
(dp7391
sI59
(dp7392
sI61
(dp7393
sI62
(dp7394
sI63
(dp7395
sI71
(dp7396
sI72
(dp7397
sI78
(dp7398
sI83
(dp7399
sI85
(dp7400
sI86
(dp7401
sI87
(dp7402
sI88
(dp7403
sI89
(dp7404
sI90
(dp7405
sI94
(dp7406
sI95
(dp7407
sI97
(dp7408
sI98
(dp7409
ssI20
(dp7410
I1
g6891
sI4
g6977
sI6
g7024
sI9
g7101
sI10
g7129
sI14
g7245
sI15
g7266
sI16
g7296
sI18
g7348
sI22
(dp7411
sI26
(dp7412
sI27
(dp7413
sI28
(dp7414
sI30
(dp7415
sI31
(dp7416
sI32
(dp7417
sI33
(dp7418
sI37
(dp7419
sI39
(dp7420
sI44
(dp7421
sI45
(dp7422
sI46
(dp7423
sI50
(dp7424
sI54
(dp7425
sI55
(dp7426
sI61
(dp7427
sI63
(dp7428
sI78
(dp7429
sI80
(dp7430
sI81
(dp7431
sI88
(dp7432
sI90
(dp7433
sI97
(dp7434
sI99
(dp7435
ssI21
(dp7436
I0
g6860
sI2
g6922
sI3
g6947
sI14
g7246
sI17
g7324
sI27
(dp7437
sI29
(dp7438
sI37
(dp7439
sI38
(dp7440
sI39
(dp7441
sI40
(dp7442
sI41
(dp7443
sI45
(dp7444
sI46
(dp7445
sI47
(dp7446
sI51
(dp7447
sI53
(dp7448
sI54
(dp7449
sI56
(dp7450
sI58
(dp7451
sI62
(dp7452
sI70
(dp7453
sI72
(dp7454
sI75
(dp7455
sI76
(dp7456
sI77
(dp7457
sI80
(dp7458
sI81
(dp7459
sI83
(dp7460
sI84
(dp7461
sI87
(dp7462
sI93
(dp7463
sI94
(dp7464
sI95
(dp7465
sI96
(dp7466
ssI22
(dp7467
I1
g6892
sI2
g6923
sI11
g7157
sI16
g7297
sI18
g7349
sI20
g7411
sI23
(dp7468
sI28
(dp7469
sI29
(dp7470
sI32
(dp7471
sI33
(dp7472
sI35
(dp7473
sI40
(dp7474
sI43
(dp7475
sI49
(dp7476
sI56
(dp7477
sI66
(dp7478
sI72
(dp7479
sI74
(dp7480
sI76
(dp7481
sI77
(dp7482
sI85
(dp7483
sI86
(dp7484
sI87
(dp7485
sI88
(dp7486
sI91
(dp7487
sI94
(dp7488
sI96
(dp7489
sI98
(dp7490
ssI23
(dp7491
I5
g7000
sI12
g7191
sI22
g7468
sI30
(dp7492
sI34
(dp7493
sI36
(dp7494
sI48
(dp7495
sI51
(dp7496
sI52
(dp7497
sI53
(dp7498
sI55
(dp7499
sI60
(dp7500
sI64
(dp7501
sI65
(dp7502
sI66
(dp7503
sI69
(dp7504
sI71
(dp7505
sI72
(dp7506
sI73
(dp7507
sI82
(dp7508
sI87
(dp7509
sI88
(dp7510
ssI24
(dp7511
I6
g7025
sI11
g7158
sI16
g7298
sI19
g7378
sI25
(dp7512
sI26
(dp7513
sI27
(dp7514
sI34
(dp7515
sI35
(dp7516
sI36
(dp7517
sI40
(dp7518
sI41
(dp7519
sI43
(dp7520
sI49
(dp7521
sI52
(dp7522
sI58
(dp7523
sI67
(dp7524
sI70
(dp7525
sI71
(dp7526
sI73
(dp7527
sI74
(dp7528
sI80
(dp7529
sI86
(dp7530
sI88
(dp7531
sI93
(dp7532
sI97
(dp7533
ssI25
(dp7534
I4
g6978
sI5
g7001
sI7
g7050
sI8
g7073
sI9
g7102
sI15
g7267
sI24
g7512
sI26
(dp7535
sI27
(dp7536
sI28
(dp7537
sI29
(dp7538
sI34
(dp7539
sI35
(dp7540
sI36
(dp7541
sI44
(dp7542
sI46
(dp7543
sI48
(dp7544
sI51
(dp7545
sI52
(dp7546
sI59
(dp7547
sI62
(dp7548
sI64
(dp7549
sI65
(dp7550
sI66
(dp7551
sI67
(dp7552
sI71
(dp7553
sI75
(dp7554
sI88
(dp7555
sI91
(dp7556
sI93
(dp7557
sI96
(dp7558
ssI26
(dp7559
I3
g6948
sI4
g6979
sI7
g7051
sI10
g7130
sI11
g7159
sI13
g7219
sI16
g7299
sI19
g7379
sI20
g7412
sI24
g7513
sI25
g7535
sI28
(dp7560
sI30
(dp7561
sI32
(dp7562
sI37
(dp7563
sI38
(dp7564
sI39
(dp7565
sI44
(dp7566
sI47
(dp7567
sI49
(dp7568
sI50
(dp7569
sI51
(dp7570
sI57
(dp7571
sI60
(dp7572
sI63
(dp7573
sI66
(dp7574
sI67
(dp7575
sI72
(dp7576
sI73
(dp7577
sI74
(dp7578
sI75
(dp7579
sI80
(dp7580
sI82
(dp7581
sI84
(dp7582
sI94
(dp7583
sI96
(dp7584
sI99
(dp7585
ssI27
(dp7586
I0
g6861
sI3
g6949
sI6
g7026
sI7
g7052
sI16
g7300
sI17
g7325
sI19
g7380
sI20
g7413
sI21
g7437
sI24
g7514
sI25
g7536
sI33
(dp7587
sI34
(dp7588
sI39
(dp7589
sI41
(dp7590
sI44
(dp7591
sI51
(dp7592
sI52
(dp7593
sI56
(dp7594
sI58
(dp7595
sI60
(dp7596
sI61
(dp7597
sI62
(dp7598
sI66
(dp7599
sI76
(dp7600
sI80
(dp7601
sI82
(dp7602
sI83
(dp7603
sI85
(dp7604
sI86
(dp7605
sI88
(dp7606
sI98
(dp7607
ssI28
(dp7608
I32
(dp7609
sI96
(dp7610
sI98
(dp7611
sI36
(dp7612
sI40
(dp7613
sI73
(dp7614
sI75
(dp7615
sI15
g7268
sI80
(dp7616
sI49
(dp7617
sI50
(dp7618
sI20
g7414
sI22
g7469
sI89
(dp7619
sI25
g7537
sI26
g7560
sI92
(dp7620
sI90
(dp7621
ssI29
(dp7622
I0
g6862
sI3
g6950
sI12
g7192
sI16
g7301
sI17
g7326
sI19
g7381
sI21
g7438
sI22
g7470
sI25
g7538
sI32
(dp7623
sI33
(dp7624
sI34
(dp7625
sI37
(dp7626
sI45
(dp7627
sI54
(dp7628
sI56
(dp7629
sI67
(dp7630
sI69
(dp7631
sI73
(dp7632
sI76
(dp7633
sI78
(dp7634
sI88
(dp7635
sI90
(dp7636
sI91
(dp7637
sI93
(dp7638
ssI30
(dp7639
I0
g6863
sI2
g6924
sI4
g6980
sI6
g7027
sI9
g7103
sI10
g7131
sI16
g7302
sI17
g7327
sI18
g7350
sI19
g7382
sI20
g7415
sI23
g7492
sI26
g7561
sI34
(dp7640
sI37
(dp7641
sI40
(dp7642
sI42
(dp7643
sI45
(dp7644
sI49
(dp7645
sI58
(dp7646
sI64
(dp7647
sI66
(dp7648
sI67
(dp7649
sI71
(dp7650
sI72
(dp7651
sI73
(dp7652
sI75
(dp7653
sI77
(dp7654
sI83
(dp7655
sI86
(dp7656
sI87
(dp7657
sI90
(dp7658
sI98
(dp7659
sI99
(dp7660
ssI31
(dp7661
I1
g6893
sI11
g7160
sI13
g7220
sI16
g7303
sI20
g7416
sI33
(dp7662
sI34
(dp7663
sI35
(dp7664
sI37
(dp7665
sI39
(dp7666
sI40
(dp7667
sI41
(dp7668
sI42
(dp7669
sI53
(dp7670
sI56
(dp7671
sI57
(dp7672
sI62
(dp7673
sI66
(dp7674
sI78
(dp7675
sI80
(dp7676
sI81
(dp7677
sI82
(dp7678
sI87
(dp7679
sI91
(dp7680
sI92
(dp7681
sI95
(dp7682
sI99
(dp7683
ssI32
(dp7684
I3
g6951
sI5
g7002
sI7
g7053
sI8
g7074
sI10
g7132
sI12
g7193
sI19
g7383
sI20
g7417
sI22
g7471
sI26
g7562
sI28
g7609
sI29
g7623
sI33
(dp7685
sI34
(dp7686
sI36
(dp7687
sI40
(dp7688
sI41
(dp7689
sI42
(dp7690
sI44
(dp7691
sI45
(dp7692
sI54
(dp7693
sI68
(dp7694
sI69
(dp7695
sI76
(dp7696
sI80
(dp7697
sI83
(dp7698
sI84
(dp7699
sI92
(dp7700
sI93
(dp7701
sI94
(dp7702
sI98
(dp7703
ssI33
(dp7704
I2
g6925
sI4
g6981
sI6
g7028
sI12
g7194
sI13
g7221
sI15
g7269
sI16
g7304
sI20
g7418
sI22
g7472
sI27
g7587
sI29
g7624
sI31
g7662
sI32
g7685
sI35
(dp7705
sI36
(dp7706
sI37
(dp7707
sI41
(dp7708
sI42
(dp7709
sI44
(dp7710
sI50
(dp7711
sI75
(dp7712
sI78
(dp7713
sI83
(dp7714
sI84
(dp7715
sI86
(dp7716
sI91
(dp7717
sI93
(dp7718
sI97
(dp7719
ssI34
(dp7720
I2
g6926
sI3
g6952
sI6
g7029
sI9
g7104
sI11
g7161
sI15
g7270
sI18
g7351
sI19
g7384
sI23
g7493
sI24
g7515
sI25
g7539
sI27
g7588
sI29
g7625
sI30
g7640
sI31
g7663
sI32
g7686
sI36
(dp7721
sI37
(dp7722
sI39
(dp7723
sI45
(dp7724
sI57
(dp7725
sI59
(dp7726
sI60
(dp7727
sI62
(dp7728
sI64
(dp7729
sI68
(dp7730
sI69
(dp7731
sI71
(dp7732
sI72
(dp7733
sI73
(dp7734
sI74
(dp7735
sI75
(dp7736
sI76
(dp7737
sI83
(dp7738
sI87
(dp7739
ssI35
(dp7740
I0
g6864
sI7
g7054
sI11
g7162
sI13
g7222
sI15
g7271
sI16
g7305
sI18
g7352
sI22
g7473
sI24
g7516
sI25
g7540
sI31
g7664
sI33
g7705
sI40
(dp7741
sI52
(dp7742
sI57
(dp7743
sI58
(dp7744
sI66
(dp7745
sI67
(dp7746
sI68
(dp7747
sI69
(dp7748
sI70
(dp7749
sI73
(dp7750
sI75
(dp7751
sI77
(dp7752
sI78
(dp7753
sI83
(dp7754
sI84
(dp7755
sI86
(dp7756
sI92
(dp7757
sI97
(dp7758
ssI36
(dp7759
I0
g6865
sI1
g6894
sI2
g6927
sI4
g6982
sI9
g7105
sI11
g7163
sI23
g7494
sI24
g7517
sI25
g7541
sI28
g7612
sI32
g7687
sI33
g7706
sI34
g7721
sI38
(dp7760
sI39
(dp7761
sI40
(dp7762
sI43
(dp7763
sI46
(dp7764
sI47
(dp7765
sI49
(dp7766
sI54
(dp7767
sI62
(dp7768
sI63
(dp7769
sI64
(dp7770
sI65
(dp7771
sI67
(dp7772
sI68
(dp7773
sI70
(dp7774
sI74
(dp7775
sI75
(dp7776
sI78
(dp7777
sI84
(dp7778
sI94
(dp7779
ssI37
(dp7780
I7
g7055
sI13
g7223
sI20
g7419
sI21
g7439
sI26
g7563
sI29
g7626
sI30
g7641
sI31
g7665
sI33
g7707
sI34
g7722
sI38
(dp7781
sI40
(dp7782
sI42
(dp7783
sI44
(dp7784
sI45
(dp7785
sI50
(dp7786
sI51
(dp7787
sI52
(dp7788
sI58
(dp7789
sI62
(dp7790
sI64
(dp7791
sI66
(dp7792
sI68
(dp7793
sI71
(dp7794
sI73
(dp7795
sI75
(dp7796
sI84
(dp7797
sI88
(dp7798
sI90
(dp7799
ssI38
(dp7800
I3
g6953
sI9
g7106
sI11
g7164
sI12
g7195
sI16
g7306
sI19
g7385
sI21
g7440
sI26
g7564
sI36
g7760
sI37
g7781
sI40
(dp7801
sI45
(dp7802
sI49
(dp7803
sI50
(dp7804
sI56
(dp7805
sI58
(dp7806
sI63
(dp7807
sI67
(dp7808
sI69
(dp7809
sI71
(dp7810
sI72
(dp7811
sI74
(dp7812
sI75
(dp7813
sI76
(dp7814
sI85
(dp7815
sI90
(dp7816
sI94
(dp7817
sI96
(dp7818
ssI39
(dp7819
I1
g6895
sI3
g6954
sI4
g6983
sI5
g7003
sI10
g7133
sI11
g7165
sI12
g7196
sI13
g7224
sI15
g7272
sI18
g7353
sI20
g7420
sI21
g7441
sI26
g7565
sI27
g7589
sI31
g7666
sI34
g7723
sI36
g7761
sI41
(dp7820
sI42
(dp7821
sI43
(dp7822
sI44
(dp7823
sI47
(dp7824
sI51
(dp7825
sI57
(dp7826
sI61
(dp7827
sI64
(dp7828
sI65
(dp7829
sI66
(dp7830
sI68
(dp7831
sI69
(dp7832
sI74
(dp7833
sI75
(dp7834
sI76
(dp7835
sI87
(dp7836
sI88
(dp7837
sI89
(dp7838
sI92
(dp7839
sI97
(dp7840
ssI40
(dp7841
I2
g6928
sI5
g7004
sI10
g7134
sI11
g7166
sI21
g7442
sI22
g7474
sI24
g7518
sI28
g7613
sI30
g7642
sI31
g7667
sI32
g7688
sI35
g7741
sI36
g7762
sI37
g7782
sI38
g7801
sI42
(dp7842
sI48
(dp7843
sI53
(dp7844
sI55
(dp7845
sI59
(dp7846
sI62
(dp7847
sI63
(dp7848
sI68
(dp7849
sI69
(dp7850
sI75
(dp7851
sI86
(dp7852
sI87
(dp7853
sI92
(dp7854
sI98
(dp7855
ssI41
(dp7856
I3
g6955
sI8
g7075
sI12
g7197
sI17
g7328
sI18
g7354
sI21
g7443
sI24
g7519
sI27
g7590
sI31
g7668
sI32
g7689
sI33
g7708
sI39
g7820
sI43
(dp7857
sI45
(dp7858
sI57
(dp7859
sI58
(dp7860
sI60
(dp7861
sI74
(dp7862
sI75
(dp7863
sI78
(dp7864
sI80
(dp7865
sI84
(dp7866
sI86
(dp7867
sI91
(dp7868
sI92
(dp7869
sI93
(dp7870
sI99
(dp7871
ssI42
(dp7872
I0
g6866
sI4
g6984
sI8
g7076
sI9
g7107
sI10
g7135
sI13
g7225
sI30
g7643
sI31
g7669
sI32
g7690
sI33
g7709
sI37
g7783
sI39
g7821
sI40
g7842
sI44
(dp7873
sI48
(dp7874
sI50
(dp7875
sI57
(dp7876
sI58
(dp7877
sI59
(dp7878
sI60
(dp7879
sI61
(dp7880
sI62
(dp7881
sI63
(dp7882
sI71
(dp7883
sI78
(dp7884
sI83
(dp7885
sI84
(dp7886
sI85
(dp7887
sI86
(dp7888
sI90
(dp7889
sI93
(dp7890
ssI43
(dp7891
I0
g6867
sI2
g6929
sI6
g7030
sI8
g7077
sI11
g7167
sI14
g7247
sI19
g7386
sI22
g7475
sI24
g7520
sI36
g7763
sI39
g7822
sI41
g7857
sI44
(dp7892
sI47
(dp7893
sI49
(dp7894
sI51
(dp7895
sI55
(dp7896
sI58
(dp7897
sI61
(dp7898
sI62
(dp7899
sI64
(dp7900
sI77
(dp7901
sI83
(dp7902
sI87
(dp7903
sI99
(dp7904
ssI44
(dp7905
I13
g7226
sI15
g7273
sI17
g7329
sI18
g7355
sI19
g7387
sI20
g7421
sI25
g7542
sI26
g7566
sI27
g7591
sI32
g7691
sI33
g7710
sI37
g7784
sI39
g7823
sI42
g7873
sI43
g7892
sI46
(dp7906
sI51
(dp7907
sI52
(dp7908
sI54
(dp7909
sI55
(dp7910
sI56
(dp7911
sI57
(dp7912
sI62
(dp7913
sI65
(dp7914
sI67
(dp7915
sI69
(dp7916
sI77
(dp7917
sI78
(dp7918
sI79
(dp7919
sI80
(dp7920
sI84
(dp7921
sI88
(dp7922
sI90
(dp7923
sI92
(dp7924
sI93
(dp7925
ssI45
(dp7926
I0
g6868
sI1
g6896
sI2
g6930
sI3
g6956
sI6
g7031
sI15
g7274
sI17
g7330
sI20
g7422
sI21
g7444
sI29
g7627
sI30
g7644
sI32
g7692
sI34
g7724
sI37
g7785
sI38
g7802
sI41
g7858
sI46
(dp7927
sI47
(dp7928
sI48
(dp7929
sI49
(dp7930
sI50
(dp7931
sI53
(dp7932
sI55
(dp7933
sI57
(dp7934
sI60
(dp7935
sI62
(dp7936
sI63
(dp7937
sI65
(dp7938
sI66
(dp7939
sI68
(dp7940
sI75
(dp7941
sI77
(dp7942
sI79
(dp7943
sI83
(dp7944
sI86
(dp7945
sI92
(dp7946
sI93
(dp7947
sI95
(dp7948
sI96
(dp7949
sI99
(dp7950
ssI46
(dp7951
I1
g6897
sI5
g7005
sI8
g7078
sI11
g7168
sI14
g7248
sI17
g7331
sI18
g7356
sI20
g7423
sI21
g7445
sI25
g7543
sI36
g7764
sI44
g7906
sI45
g7927
sI47
(dp7952
sI52
(dp7953
sI56
(dp7954
sI62
(dp7955
sI68
(dp7956
sI79
(dp7957
sI82
(dp7958
sI84
(dp7959
sI87
(dp7960
sI89
(dp7961
sI90
(dp7962
sI93
(dp7963
sI95
(dp7964
sI98
(dp7965
ssI47
(dp7966
I1
g6898
sI2
g6931
sI3
g6957
sI12
g7198
sI21
g7446
sI26
g7567
sI36
g7765
sI39
g7824
sI43
g7893
sI45
g7928
sI46
g7952
sI61
(dp7967
sI67
(dp7968
sI68
(dp7969
sI69
(dp7970
sI75
(dp7971
sI77
(dp7972
sI78
(dp7973
sI81
(dp7974
sI82
(dp7975
sI86
(dp7976
sI90
(dp7977
sI96
(dp7978
sI97
(dp7979
sI98
(dp7980
ssI48
(dp7981
I0
g6869
sI1
g6899
sI6
g7032
sI10
g7136
sI12
g7199
sI18
g7357
sI23
g7495
sI25
g7544
sI40
g7843
sI42
g7874
sI45
g7929
sI49
(dp7982
sI50
(dp7983
sI62
(dp7984
sI65
(dp7985
sI66
(dp7986
sI68
(dp7987
sI69
(dp7988
sI70
(dp7989
sI71
(dp7990
sI76
(dp7991
sI77
(dp7992
sI78
(dp7993
sI80
(dp7994
sI81
(dp7995
sI85
(dp7996
sI89
(dp7997
sI90
(dp7998
sI91
(dp7999
sI92
(dp8000
ssI49
(dp8001
I2
g6932
sI4
g6985
sI6
g7033
sI8
g7079
sI11
g7169
sI12
g7200
sI19
g7388
sI22
g7476
sI24
g7521
sI26
g7568
sI28
g7617
sI30
g7645
sI36
g7766
sI38
g7803
sI43
g7894
sI45
g7930
sI48
g7982
sI54
(dp8002
sI59
(dp8003
sI64
(dp8004
sI72
(dp8005
sI85
(dp8006
sI86
(dp8007
sI93
(dp8008
sI94
(dp8009
ssI50
(dp8010
I0
g6870
sI4
g6986
sI6
g7034
sI7
g7056
sI8
g7080
sI9
g7108
sI11
g7170
sI13
g7227
sI20
g7424
sI26
g7569
sI28
g7618
sI33
g7711
sI37
g7786
sI38
g7804
sI42
g7875
sI45
g7931
sI48
g7983
sI51
(dp8011
sI58
(dp8012
sI61
(dp8013
sI62
(dp8014
sI64
(dp8015
sI68
(dp8016
sI69
(dp8017
sI71
(dp8018
sI74
(dp8019
sI79
(dp8020
sI81
(dp8021
sI86
(dp8022
sI87
(dp8023
sI88
(dp8024
sI94
(dp8025
ssI51
(dp8026
I0
g6871
sI7
g7057
sI18
g7358
sI21
g7447
sI23
g7496
sI25
g7545
sI26
g7570
sI27
g7592
sI37
g7787
sI39
g7825
sI43
g7895
sI44
g7907
sI50
g8011
sI52
(dp8027
sI55
(dp8028
sI60
(dp8029
sI61
(dp8030
sI68
(dp8031
sI69
(dp8032
sI72
(dp8033
sI73
(dp8034
sI75
(dp8035
sI83
(dp8036
sI84
(dp8037
sI91
(dp8038
sI94
(dp8039
ssI52
(dp8040
I3
g6958
sI7
g7058
sI9
g7109
sI14
g7249
sI16
g7307
sI23
g7497
sI24
g7522
sI25
g7546
sI27
g7593
sI35
g7742
sI37
g7788
sI44
g7908
sI46
g7953
sI51
g8027
sI58
(dp8041
sI59
(dp8042
sI65
(dp8043
sI68
(dp8044
sI74
(dp8045
sI77
(dp8046
sI83
(dp8047
sI86
(dp8048
sI95
(dp8049
sI96
(dp8050
sI98
(dp8051
sI99
(dp8052
ssI53
(dp8053
I64
(dp8054
sI83
(dp8055
sI99
(dp8056
sI40
g7844
sI92
(dp8057
sI74
(dp8058
sI55
(dp8059
sI12
g7201
sI45
g7932
sI77
(dp8060
sI72
(dp8061
sI19
g7389
sI84
(dp8062
sI21
g7448
sI23
g7498
sI60
(dp8063
sI62
(dp8064
sI31
g7670
ssI54
(dp8065
I4
g6987
sI7
g7059
sI8
g7081
sI11
g7171
sI12
g7202
sI14
g7250
sI17
g7332
sI18
g7359
sI19
g7390
sI20
g7425
sI21
g7449
sI29
g7628
sI32
g7693
sI36
g7767
sI44
g7909
sI49
g8002
sI55
(dp8066
sI56
(dp8067
sI65
(dp8068
sI66
(dp8069
sI67
(dp8070
sI68
(dp8071
sI70
(dp8072
sI73
(dp8073
sI79
(dp8074
sI86
(dp8075
sI87
(dp8076
sI89
(dp8077
sI91
(dp8078
sI99
(dp8079
ssI55
(dp8080
I0
g6872
sI1
g6900
sI12
g7203
sI20
g7426
sI23
g7499
sI40
g7845
sI43
g7896
sI44
g7910
sI45
g7933
sI51
g8028
sI53
g8059
sI54
g8066
sI56
(dp8081
sI59
(dp8082
sI64
(dp8083
sI67
(dp8084
sI69
(dp8085
sI76
(dp8086
sI79
(dp8087
sI81
(dp8088
sI91
(dp8089
sI94
(dp8090
sI96
(dp8091
sI98
(dp8092
ssI56
(dp8093
I0
g6873
sI6
g7035
sI8
g7082
sI9
g7110
sI11
g7172
sI15
g7275
sI16
g7308
sI21
g7450
sI22
g7477
sI27
g7594
sI29
g7629
sI31
g7671
sI38
g7805
sI44
g7911
sI46
g7954
sI54
g8067
sI55
g8081
sI57
(dp8094
sI63
(dp8095
sI65
(dp8096
sI72
(dp8097
sI74
(dp8098
sI76
(dp8099
sI82
(dp8100
sI90
(dp8101
sI92
(dp8102
sI98
(dp8103
ssI57
(dp8104
I3
g6959
sI4
g6988
sI5
g7006
sI11
g7173
sI15
g7276
sI26
g7571
sI31
g7672
sI34
g7725
sI35
g7743
sI39
g7826
sI41
g7859
sI42
g7876
sI44
g7912
sI45
g7934
sI56
g8094
sI58
(dp8105
sI59
(dp8106
sI60
(dp8107
sI65
(dp8108
sI71
(dp8109
sI77
(dp8110
sI90
(dp8111
sI93
(dp8112
sI94
(dp8113
sI96
(dp8114
sI97
(dp8115
sI98
(dp8116
ssI58
(dp8117
I0
g6874
sI1
g6901
sI5
g7007
sI9
g7111
sI11
g7174
sI12
g7204
sI14
g7251
sI16
g7309
sI19
g7391
sI21
g7451
sI24
g7523
sI27
g7595
sI30
g7646
sI35
g7744
sI37
g7789
sI38
g7806
sI41
g7860
sI42
g7877
sI43
g7897
sI50
g8012
sI52
g8041
sI57
g8105
sI59
(dp8118
sI60
(dp8119
sI63
(dp8120
sI64
(dp8121
sI66
(dp8122
sI67
(dp8123
sI68
(dp8124
sI69
(dp8125
sI70
(dp8126
sI71
(dp8127
sI75
(dp8128
sI77
(dp8129
sI84
(dp8130
sI86
(dp8131
sI88
(dp8132
sI93
(dp8133
sI98
(dp8134
ssI59
(dp8135
I6
g7036
sI10
g7137
sI11
g7175
sI15
g7277
sI16
g7310
sI19
g7392
sI25
g7547
sI34
g7726
sI40
g7846
sI42
g7878
sI49
g8003
sI52
g8042
sI55
g8082
sI57
g8106
sI58
g8118
sI67
(dp8136
sI76
(dp8137
sI81
(dp8138
sI83
(dp8139
sI87
(dp8140
sI93
(dp8141
sI97
(dp8142
sI98
(dp8143
sI99
(dp8144
ssI60
(dp8145
I6
g7037
sI7
g7060
sI11
g7176
sI23
g7500
sI26
g7572
sI27
g7596
sI34
g7727
sI41
g7861
sI42
g7879
sI45
g7935
sI51
g8029
sI53
g8063
sI57
g8107
sI58
g8119
sI65
(dp8146
sI67
(dp8147
sI69
(dp8148
sI70
(dp8149
sI73
(dp8150
sI75
(dp8151
sI76
(dp8152
sI88
(dp8153
sI90
(dp8154
sI91
(dp8155
sI94
(dp8156
sI95
(dp8157
ssI61
(dp8158
I1
g6902
sI6
g7038
sI7
g7061
sI10
g7138
sI11
g7177
sI12
g7205
sI14
g7252
sI15
g7278
sI16
g7311
sI18
g7360
sI19
g7393
sI20
g7427
sI27
g7597
sI39
g7827
sI42
g7880
sI43
g7898
sI47
g7967
sI50
g8013
sI51
g8030
sI62
(dp8159
sI64
(dp8160
sI65
(dp8161
sI68
(dp8162
sI72
(dp8163
sI75
(dp8164
sI76
(dp8165
sI77
(dp8166
sI78
(dp8167
sI83
(dp8168
sI85
(dp8169
sI92
(dp8170
sI96
(dp8171
sI98
(dp8172
ssI62
(dp8173
I1
g6903
sI7
g7062
sI8
g7083
sI10
g7139
sI17
g7333
sI18
g7361
sI19
g7394
sI21
g7452
sI25
g7548
sI27
g7598
sI31
g7673
sI34
g7728
sI36
g7768
sI37
g7790
sI40
g7847
sI42
g7881
sI43
g7899
sI44
g7913
sI45
g7936
sI46
g7955
sI48
g7984
sI50
g8014
sI53
g8064
sI61
g8159
sI74
(dp8174
sI77
(dp8175
sI79
(dp8176
sI83
(dp8177
sI84
(dp8178
sI87
(dp8179
sI90
(dp8180
sI93
(dp8181
sI95
(dp8182
ssI63
(dp8183
I2
g6933
sI3
g6960
sI6
g7039
sI9
g7112
sI17
g7334
sI18
g7362
sI19
g7395
sI20
g7428
sI26
g7573
sI36
g7769
sI38
g7807
sI40
g7848
sI42
g7882
sI45
g7937
sI56
g8095
sI58
g8120
sI70
(dp8184
sI71
(dp8185
sI72
(dp8186
sI73
(dp8187
sI77
(dp8188
sI79
(dp8189
sI81
(dp8190
sI85
(dp8191
sI86
(dp8192
sI87
(dp8193
sI93
(dp8194
ssI64
(dp8195
I1
g6904
sI10
g7140
sI11
g7178
sI12
g7206
sI18
g7363
sI23
g7501
sI25
g7549
sI30
g7647
sI34
g7729
sI36
g7770
sI37
g7791
sI39
g7828
sI43
g7900
sI49
g8004
sI50
g8015
sI53
g8054
sI55
g8083
sI58
g8121
sI61
g8160
sI66
(dp8196
sI71
(dp8197
sI72
(dp8198
sI75
(dp8199
sI81
(dp8200
sI82
(dp8201
sI84
(dp8202
sI87
(dp8203
sI92
(dp8204
sI95
(dp8205
sI98
(dp8206
sI99
(dp8207
ssI65
(dp8208
I7
g7063
sI8
g7084
sI12
g7207
sI23
g7502
sI25
g7550
sI36
g7771
sI39
g7829
sI44
g7914
sI45
g7938
sI48
g7985
sI52
g8043
sI54
g8068
sI56
g8096
sI57
g8108
sI60
g8146
sI61
g8161
sI69
(dp8209
sI76
(dp8210
sI81
(dp8211
sI83
(dp8212
sI85
(dp8213
sI87
(dp8214
sI91
(dp8215
sI93
(dp8216
sI96
(dp8217
ssI66
(dp8218
I1
g6905
sI3
g6961
sI8
g7085
sI9
g7113
sI15
g7279
sI22
g7478
sI23
g7503
sI25
g7551
sI26
g7574
sI27
g7599
sI30
g7648
sI31
g7674
sI35
g7745
sI37
g7792
sI39
g7830
sI45
g7939
sI48
g7986
sI54
g8069
sI58
g8122
sI64
g8196
sI69
(dp8219
sI70
(dp8220
sI72
(dp8221
sI73
(dp8222
sI75
(dp8223
sI81
(dp8224
sI83
(dp8225
sI85
(dp8226
sI89
(dp8227
sI92
(dp8228
sI93
(dp8229
sI96
(dp8230
ssI67
(dp8231
I3
g6962
sI5
g7008
sI7
g7064
sI10
g7141
sI14
g7253
sI18
g7364
sI24
g7524
sI25
g7552
sI26
g7575
sI29
g7630
sI30
g7649
sI35
g7746
sI36
g7772
sI38
g7808
sI44
g7915
sI47
g7968
sI54
g8070
sI55
g8084
sI58
g8123
sI59
g8136
sI60
g8147
sI68
(dp8232
sI72
(dp8233
sI83
(dp8234
sI84
(dp8235
sI89
(dp8236
sI91
(dp8237
sI98
(dp8238
sI99
(dp8239
ssI68
(dp8240
I1
g6906
sI5
g7009
sI32
g7694
sI34
g7730
sI35
g7747
sI36
g7773
sI37
g7793
sI39
g7831
sI40
g7849
sI45
g7940
sI46
g7956
sI47
g7969
sI48
g7987
sI50
g8016
sI51
g8031
sI52
g8044
sI54
g8071
sI58
g8124
sI61
g8162
sI67
g8232
sI70
(dp8241
sI71
(dp8242
sI72
(dp8243
sI74
(dp8244
sI75
(dp8245
sI77
(dp8246
sI78
(dp8247
sI79
(dp8248
sI80
(dp8249
sI84
(dp8250
sI90
(dp8251
sI93
(dp8252
sI94
(dp8253
sI95
(dp8254
sI97
(dp8255
sI99
(dp8256
ssI69
(dp8257
I9
g7114
sI13
g7228
sI23
g7504
sI29
g7631
sI32
g7695
sI34
g7731
sI35
g7748
sI38
g7809
sI39
g7832
sI40
g7850
sI44
g7916
sI47
g7970
sI48
g7988
sI50
g8017
sI51
g8032
sI55
g8085
sI58
g8125
sI60
g8148
sI65
g8209
sI66
g8219
sI75
(dp8258
sI76
(dp8259
sI78
(dp8260
sI79
(dp8261
sI83
(dp8262
sI93
(dp8263
sI94
(dp8264
sI98
(dp8265
sI99
(dp8266
ssI70
(dp8267
I10
g7142
sI17
g7335
sI21
g7453
sI24
g7525
sI35
g7749
sI36
g7774
sI48
g7989
sI54
g8072
sI58
g8126
sI60
g8149
sI63
g8184
sI66
g8220
sI68
g8241
sI71
(dp8268
sI73
(dp8269
sI75
(dp8270
sI76
(dp8271
sI78
(dp8272
sI79
(dp8273
sI81
(dp8274
sI89
(dp8275
sI90
(dp8276
sI97
(dp8277
ssI71
(dp8278
I1
g6907
sI4
g6989
sI8
g7086
sI10
g7143
sI13
g7229
sI15
g7280
sI18
g7365
sI19
g7396
sI23
g7505
sI24
g7526
sI25
g7553
sI30
g7650
sI34
g7732
sI37
g7794
sI38
g7810
sI42
g7883
sI48
g7990
sI50
g8018
sI57
g8109
sI58
g8127
sI63
g8185
sI64
g8197
sI68
g8242
sI70
g8268
sI81
(dp8279
sI89
(dp8280
sI93
(dp8281
sI97
(dp8282
sI99
(dp8283
ssI72
(dp8284
I0
g6875
sI3
g6963
sI4
g6990
sI5
g7010
sI9
g7115
sI14
g7254
sI17
g7336
sI19
g7397
sI21
g7454
sI22
g7479
sI23
g7506
sI26
g7576
sI30
g7651
sI34
g7733
sI38
g7811
sI49
g8005
sI51
g8033
sI53
g8061
sI56
g8097
sI61
g8163
sI63
g8186
sI64
g8198
sI66
g8221
sI67
g8233
sI68
g8243
sI76
(dp8285
sI77
(dp8286
sI78
(dp8287
sI79
(dp8288
sI81
(dp8289
sI87
(dp8290
sI88
(dp8291
sI93
(dp8292
sI95
(dp8293
sI99
(dp8294
ssI73
(dp8295
I1
g6908
sI2
g6934
sI3
g6964
sI8
g7087
sI13
g7230
sI15
g7281
sI23
g7507
sI24
g7527
sI26
g7577
sI28
g7614
sI29
g7632
sI30
g7652
sI34
g7734
sI35
g7750
sI37
g7795
sI51
g8034
sI54
g8073
sI60
g8150
sI63
g8187
sI66
g8222
sI70
g8269
sI75
(dp8296
sI78
(dp8297
sI86
(dp8298
sI91
(dp8299
sI92
(dp8300
sI94
(dp8301
sI95
(dp8302
sI99
(dp8303
ssI74
(dp8304
I2
g6935
sI4
g6991
sI6
g7040
sI8
g7088
sI14
g7255
sI16
g7312
sI17
g7337
sI18
g7366
sI22
g7480
sI24
g7528
sI26
g7578
sI34
g7735
sI36
g7775
sI38
g7812
sI39
g7833
sI41
g7862
sI50
g8019
sI52
g8045
sI53
g8058
sI56
g8098
sI62
g8174
sI68
g8244
sI76
(dp8305
sI80
(dp8306
sI85
(dp8307
sI88
(dp8308
sI94
(dp8309
sI95
(dp8310
ssI75
(dp8311
I1
g6909
sI4
g6992
sI7
g7065
sI10
g7144
sI11
g7179
sI17
g7338
sI18
g7367
sI21
g7455
sI25
g7554
sI26
g7579
sI28
g7615
sI30
g7653
sI33
g7712
sI34
g7736
sI35
g7751
sI36
g7776
sI37
g7796
sI38
g7813
sI39
g7834
sI40
g7851
sI41
g7863
sI45
g7941
sI47
g7971
sI51
g8035
sI58
g8128
sI60
g8151
sI61
g8164
sI64
g8199
sI66
g8223
sI68
g8245
sI69
g8258
sI70
g8270
sI73
g8296
sI78
(dp8312
sI83
(dp8313
sI85
(dp8314
sI86
(dp8315
sI89
(dp8316
sI91
(dp8317
sI93
(dp8318
sI96
(dp8319
sI97
(dp8320
sI98
(dp8321
sI99
(dp8322
ssI76
(dp8323
I0
g6876
sI5
g7011
sI7
g7066
sI8
g7089
sI11
g7180
sI13
g7231
sI14
g7256
sI17
g7339
sI21
g7456
sI22
g7481
sI27
g7600
sI29
g7633
sI32
g7696
sI34
g7737
sI38
g7814
sI39
g7835
sI48
g7991
sI55
g8086
sI56
g8099
sI59
g8137
sI60
g8152
sI61
g8165
sI65
g8210
sI69
g8259
sI70
g8271
sI72
g8285
sI74
g8305
sI80
(dp8324
sI85
(dp8325
sI89
(dp8326
sI94
(dp8327
sI95
(dp8328
ssI77
(dp8329
I9
g7116
sI15
g7282
sI18
g7368
sI21
g7457
sI22
g7482
sI30
g7654
sI35
g7752
sI43
g7901
sI44
g7917
sI45
g7942
sI47
g7972
sI48
g7992
sI52
g8046
sI53
g8060
sI57
g8110
sI58
g8129
sI61
g8166
sI62
g8175
sI63
g8188
sI68
g8246
sI72
g8286
sI79
(dp8330
sI82
(dp8331
sI89
(dp8332
sI93
(dp8333
sI95
(dp8334
ssI78
(dp8335
I0
g6877
sI3
g6965
sI8
g7090
sI12
g7208
sI15
g7283
sI16
g7313
sI18
g7369
sI19
g7398
sI20
g7429
sI29
g7634
sI31
g7675
sI33
g7713
sI35
g7753
sI36
g7777
sI41
g7864
sI42
g7884
sI44
g7918
sI47
g7973
sI48
g7993
sI61
g8167
sI68
g8247
sI69
g8260
sI70
g8272
sI72
g8287
sI73
g8297
sI75
g8312
sI87
(dp8336
sI94
(dp8337
sI96
(dp8338
ssI79
(dp8339
I91
(dp8340
sI68
g8248
sI69
g8261
sI6
g7041
sI77
g8330
sI72
g8288
sI9
g7117
sI44
g7919
sI45
g7943
sI46
g7957
sI13
g7232
sI81
(dp8341
sI50
g8020
sI54
g8074
sI55
g8087
sI88
(dp8342
sI90
(dp8343
sI15
g7284
sI70
g8273
sI62
g8176
sI63
g8189
ssI80
(dp8344
I0
g6878
sI9
g7118
sI10
g7145
sI13
g7233
sI16
g7314
sI20
g7430
sI21
g7458
sI24
g7529
sI26
g7580
sI27
g7601
sI28
g7616
sI31
g7676
sI32
g7697
sI41
g7865
sI44
g7920
sI48
g7994
sI68
g8249
sI74
g8306
sI76
g8324
sI85
(dp8345
sI88
(dp8346
sI94
(dp8347
sI97
(dp8348
ssI81
(dp8349
I0
g6879
sI5
g7012
sI15
g7285
sI20
g7431
sI21
g7459
sI31
g7677
sI47
g7974
sI48
g7995
sI50
g8021
sI55
g8088
sI59
g8138
sI63
g8190
sI64
g8200
sI65
g8211
sI66
g8224
sI70
g8274
sI71
g8279
sI72
g8289
sI79
g8341
sI82
(dp8350
sI83
(dp8351
sI84
(dp8352
sI87
(dp8353
sI89
(dp8354
sI92
(dp8355
ssI82
(dp8356
I1
g6910
sI8
g7091
sI10
g7146
sI15
g7286
sI16
g7315
sI17
g7340
sI23
g7508
sI26
g7581
sI27
g7602
sI31
g7678
sI46
g7958
sI47
g7975
sI56
g8100
sI64
g8201
sI77
g8331
sI81
g8350
sI85
(dp8357
sI88
(dp8358
sI92
(dp8359
sI93
(dp8360
sI96
(dp8361
sI98
(dp8362
ssI83
(dp8363
I1
g6911
sI2
g6936
sI3
g6966
sI8
g7092
sI9
g7119
sI12
g7209
sI18
g7370
sI19
g7399
sI21
g7460
sI27
g7603
sI30
g7655
sI32
g7698
sI33
g7714
sI34
g7738
sI35
g7754
sI42
g7885
sI43
g7902
sI45
g7944
sI51
g8036
sI52
g8047
sI53
g8055
sI59
g8139
sI61
g8168
sI62
g8177
sI65
g8212
sI66
g8225
sI67
g8234
sI69
g8262
sI75
g8313
sI81
g8351
sI84
(dp8364
sI85
(dp8365
sI86
(dp8366
sI88
(dp8367
sI89
(dp8368
sI90
(dp8369
sI91
(dp8370
sI97
(dp8371
sI98
(dp8372
ssI84
(dp8373
I1
g6912
sI2
g6937
sI12
g7210
sI16
g7316
sI21
g7461
sI26
g7582
sI32
g7699
sI33
g7715
sI35
g7755
sI36
g7778
sI37
g7797
sI41
g7866
sI42
g7886
sI44
g7921
sI46
g7959
sI51
g8037
sI53
g8062
sI58
g8130
sI62
g8178
sI64
g8202
sI67
g8235
sI68
g8250
sI81
g8352
sI83
g8364
sI85
(dp8374
sI88
(dp8375
sI95
(dp8376
sI96
(dp8377
sI97
(dp8378
sI98
(dp8379
ssI85
(dp8380
I10
g7147
sI15
g7287
sI17
g7341
sI19
g7400
sI22
g7483
sI27
g7604
sI38
g7815
sI42
g7887
sI48
g7996
sI49
g8006
sI61
g8169
sI63
g8191
sI65
g8213
sI66
g8226
sI74
g8307
sI75
g8314
sI76
g8325
sI80
g8345
sI82
g8357
sI83
g8365
sI84
g8374
sI86
(dp8381
sI90
(dp8382
sI91
(dp8383
sI97
(dp8384
ssI86
(dp8385
I4
g6993
sI6
g7042
sI9
g7120
sI11
g7181
sI12
g7211
sI13
g7234
sI15
g7288
sI17
g7342
sI19
g7401
sI22
g7484
sI24
g7530
sI27
g7605
sI30
g7656
sI33
g7716
sI35
g7756
sI40
g7852
sI41
g7867
sI42
g7888
sI45
g7945
sI47
g7976
sI49
g8007
sI50
g8022
sI52
g8048
sI54
g8075
sI58
g8131
sI63
g8192
sI73
g8298
sI75
g8315
sI83
g8366
sI85
g8381
sI87
(dp8386
ssI87
(dp8387
I8
g7093
sI9
g7121
sI11
g7182
sI12
g7212
sI13
g7235
sI17
g7343
sI19
g7402
sI21
g7462
sI22
g7485
sI23
g7509
sI30
g7657
sI31
g7679
sI34
g7739
sI39
g7836
sI40
g7853
sI43
g7903
sI46
g7960
sI50
g8023
sI54
g8076
sI59
g8140
sI62
g8179
sI63
g8193
sI64
g8203
sI65
g8214
sI72
g8290
sI78
g8336
sI81
g8353
sI86
g8386
sI90
(dp8388
sI96
(dp8389
sI97
(dp8390
ssI88
(dp8391
I1
g6913
sI3
g6967
sI9
g7122
sI15
g7289
sI16
g7317
sI17
g7344
sI19
g7403
sI20
g7432
sI22
g7486
sI23
g7510
sI24
g7531
sI25
g7555
sI27
g7606
sI29
g7635
sI37
g7798
sI39
g7837
sI44
g7922
sI50
g8024
sI58
g8132
sI60
g8153
sI72
g8291
sI74
g8308
sI79
g8342
sI80
g8346
sI82
g8358
sI83
g8367
sI84
g8375
sI95
(dp8392
sI97
(dp8393
ssI89
(dp8394
I0
g6880
sI3
g6968
sI5
g7013
sI8
g7094
sI15
g7290
sI16
g7318
sI18
g7371
sI19
g7404
sI28
g7619
sI39
g7838
sI46
g7961
sI48
g7997
sI54
g8077
sI66
g8227
sI67
g8236
sI70
g8275
sI71
g8280
sI75
g8316
sI76
g8326
sI77
g8332
sI81
g8354
sI83
g8368
sI90
(dp8395
sI93
(dp8396
sI96
(dp8397
ssI90
(dp8398
I2
g6938
sI3
g6969
sI5
g7014
sI7
g7067
sI13
g7236
sI14
g7257
sI16
g7319
sI18
g7372
sI19
g7405
sI20
g7433
sI28
g7621
sI29
g7636
sI30
g7658
sI37
g7799
sI38
g7816
sI42
g7889
sI44
g7923
sI46
g7962
sI47
g7977
sI48
g7998
sI56
g8101
sI57
g8111
sI60
g8154
sI62
g8180
sI68
g8251
sI70
g8276
sI79
g8343
sI83
g8369
sI85
g8382
sI87
g8388
sI89
g8395
sI91
(dp8399
sI93
(dp8400
sI94
(dp8401
sI95
(dp8402
sI99
(dp8403
ssI91
(dp8404
I0
g6881
sI5
g7015
sI6
g7043
sI14
g7258
sI17
g7345
sI22
g7487
sI25
g7556
sI29
g7637
sI31
g7680
sI33
g7717
sI41
g7868
sI48
g7999
sI51
g8038
sI54
g8078
sI55
g8089
sI60
g8155
sI65
g8215
sI67
g8237
sI73
g8299
sI75
g8317
sI79
g8340
sI83
g8370
sI85
g8383
sI90
g8399
sI96
(dp8405
ssI92
(dp8406
I7
g7068
sI9
g7123
sI14
g7259
sI18
g7373
sI28
g7620
sI31
g7681
sI32
g7700
sI35
g7757
sI39
g7839
sI40
g7854
sI41
g7869
sI44
g7924
sI45
g7946
sI48
g8000
sI53
g8057
sI56
g8102
sI61
g8170
sI64
g8204
sI66
g8228
sI73
g8300
sI81
g8355
sI82
g8359
sI93
(dp8407
sI94
(dp8408
sI96
(dp8409
ssI93
(dp8410
I2
g6939
sI3
g6970
sI6
g7044
sI7
g7069
sI10
g7148
sI11
g7183
sI12
g7213
sI13
g7237
sI14
g7260
sI16
g7320
sI21
g7463
sI24
g7532
sI25
g7557
sI29
g7638
sI32
g7701
sI33
g7718
sI41
g7870
sI42
g7890
sI44
g7925
sI45
g7947
sI46
g7963
sI49
g8008
sI57
g8112
sI58
g8133
sI59
g8141
sI62
g8181
sI63
g8194
sI65
g8216
sI66
g8229
sI68
g8252
sI69
g8263
sI71
g8281
sI72
g8292
sI75
g8318
sI77
g8333
sI82
g8360
sI89
g8396
sI90
g8400
sI92
g8407
sI95
(dp8411
ssI94
(dp8412
I0
g6882
sI3
g6971
sI10
g7149
sI11
g7184
sI12
g7214
sI13
g7238
sI14
g7261
sI16
g7321
sI18
g7374
sI19
g7406
sI21
g7464
sI22
g7488
sI26
g7583
sI32
g7702
sI36
g7779
sI38
g7817
sI49
g8009
sI50
g8025
sI51
g8039
sI55
g8090
sI57
g8113
sI60
g8156
sI68
g8253
sI69
g8264
sI73
g8301
sI74
g8309
sI76
g8327
sI78
g8337
sI80
g8347
sI90
g8401
sI92
g8408
sI97
(dp8413
ssI95
(dp8414
I3
g6972
sI6
g7045
sI15
g7291
sI18
g7375
sI19
g7407
sI21
g7465
sI31
g7682
sI45
g7948
sI46
g7964
sI52
g8049
sI60
g8157
sI62
g8182
sI64
g8205
sI68
g8254
sI72
g8293
sI73
g8302
sI74
g8310
sI76
g8328
sI77
g8334
sI84
g8376
sI88
g8392
sI90
g8402
sI93
g8411
sI97
(dp8415
ssI96
(dp8416
I4
g6994
sI5
g7016
sI8
g7095
sI9
g7124
sI10
g7150
sI13
g7239
sI15
g7292
sI21
g7466
sI22
g7489
sI25
g7558
sI26
g7584
sI28
g7610
sI38
g7818
sI45
g7949
sI47
g7978
sI52
g8050
sI55
g8091
sI57
g8114
sI61
g8171
sI65
g8217
sI66
g8230
sI75
g8319
sI78
g8338
sI82
g8361
sI84
g8377
sI87
g8389
sI89
g8397
sI91
g8405
sI92
g8409
sI97
(dp8417
sI98
(dp8418
ssI97
(dp8419
I1
g6914
sI5
g7017
sI6
g7046
sI11
g7185
sI12
g7215
sI19
g7408
sI20
g7434
sI24
g7533
sI33
g7719
sI35
g7758
sI39
g7840
sI47
g7979
sI57
g8115
sI59
g8142
sI68
g8255
sI70
g8277
sI71
g8282
sI75
g8320
sI80
g8348
sI83
g8371
sI84
g8378
sI85
g8384
sI87
g8390
sI88
g8393
sI94
g8413
sI95
g8415
sI96
g8417
sI98
(dp8420
ssI98
(dp8421
I1
g6915
sI2
g6940
sI8
g7096
sI11
g7186
sI17
g7346
sI18
g7376
sI19
g7409
sI22
g7490
sI27
g7607
sI28
g7611
sI30
g7659
sI32
g7703
sI40
g7855
sI46
g7965
sI47
g7980
sI52
g8051
sI55
g8092
sI56
g8103
sI57
g8116
sI58
g8134
sI59
g8143
sI61
g8172
sI64
g8206
sI67
g8238
sI69
g8265
sI75
g8321
sI82
g8362
sI83
g8372
sI84
g8379
sI96
g8418
sI97
g8420
ssI99
(dp8422
I1
g6916
sI5
g7018
sI6
g7047
sI9
g7125
sI14
g7262
sI20
g7435
sI26
g7585
sI30
g7660
sI31
g7683
sI41
g7871
sI43
g7904
sI45
g7950
sI52
g8052
sI53
g8056
sI54
g8079
sI59
g8144
sI64
g8207
sI67
g8239
sI68
g8256
sI69
g8266
sI71
g8283
sI72
g8294
sI73
g8303
sI75
g8322
sI90
g8403
sssg1697
g6853
sbssS'edge_list'
p8423
(lp8424
sS'node_list'
p8425
(lp8426
sS'metadata'
p8427
(dp8428
sb.